
dct:     file format elf32-littleriscv


Disassembly of section .text:

00010074 <register_fini>:
   10074:	00000793          	li	a5,0
   10078:	00078863          	beqz	a5,10088 <register_fini+0x14>
   1007c:	00014537          	lui	a0,0x14
   10080:	4f050513          	addi	a0,a0,1264 # 144f0 <__libc_fini_array>
   10084:	3090d06f          	j	1db8c <atexit>
   10088:	00008067          	ret

0001008c <_start>:
   1008c:	00018197          	auipc	gp,0x18
   10090:	83418193          	addi	gp,gp,-1996 # 278c0 <__global_pointer$>
   10094:	1cc18513          	addi	a0,gp,460 # 27a8c <_PathLocale>
   10098:	22818613          	addi	a2,gp,552 # 27ae8 <__BSS_END__>
   1009c:	40a60633          	sub	a2,a2,a0
   100a0:	00000593          	li	a1,0
   100a4:	3a5000ef          	jal	ra,10c48 <memset>
   100a8:	0000e517          	auipc	a0,0xe
   100ac:	ae450513          	addi	a0,a0,-1308 # 1db8c <atexit>
   100b0:	00050863          	beqz	a0,100c0 <_start+0x34>
   100b4:	00004517          	auipc	a0,0x4
   100b8:	43c50513          	addi	a0,a0,1084 # 144f0 <__libc_fini_array>
   100bc:	2d10d0ef          	jal	ra,1db8c <atexit>
   100c0:	1c5000ef          	jal	ra,10a84 <__libc_init_array>
   100c4:	00012503          	lw	a0,0(sp)
   100c8:	00410593          	addi	a1,sp,4
   100cc:	00000613          	li	a2,0
   100d0:	0c1000ef          	jal	ra,10990 <main>
   100d4:	1810006f          	j	10a54 <exit>

000100d8 <__do_global_dtors_aux>:
   100d8:	1e41c703          	lbu	a4,484(gp) # 27aa4 <completed.1>
   100dc:	04071263          	bnez	a4,10120 <__do_global_dtors_aux+0x48>
   100e0:	ff010113          	addi	sp,sp,-16
   100e4:	00812423          	sw	s0,8(sp)
   100e8:	00078413          	mv	s0,a5
   100ec:	00112623          	sw	ra,12(sp)
   100f0:	00000793          	li	a5,0
   100f4:	00078a63          	beqz	a5,10108 <__do_global_dtors_aux+0x30>
   100f8:	00027537          	lui	a0,0x27
   100fc:	00050513          	mv	a0,a0
   10100:	00000097          	auipc	ra,0x0
   10104:	000000e7          	jalr	zero # 0 <register_fini-0x10074>
   10108:	00100793          	li	a5,1
   1010c:	00c12083          	lw	ra,12(sp)
   10110:	1ef18223          	sb	a5,484(gp) # 27aa4 <completed.1>
   10114:	00812403          	lw	s0,8(sp)
   10118:	01010113          	addi	sp,sp,16
   1011c:	00008067          	ret
   10120:	00008067          	ret

00010124 <frame_dummy>:
   10124:	00000793          	li	a5,0
   10128:	00078c63          	beqz	a5,10140 <frame_dummy+0x1c>
   1012c:	00027537          	lui	a0,0x27
   10130:	1e818593          	addi	a1,gp,488 # 27aa8 <object.0>
   10134:	00050513          	mv	a0,a0
   10138:	00000317          	auipc	t1,0x0
   1013c:	00000067          	jr	zero # 0 <register_fini-0x10074>
   10140:	00008067          	ret

00010144 <fast_fixed_dct8x8>:
   10144:	dd010113          	addi	sp,sp,-560
   10148:	22112623          	sw	ra,556(sp)
   1014c:	22812423          	sw	s0,552(sp)
   10150:	23010413          	addi	s0,sp,560
   10154:	dca42e23          	sw	a0,-548(s0)
   10158:	dcb42c23          	sw	a1,-552(s0)
   1015c:	fe042623          	sw	zero,-20(s0)
   10160:	0740006f          	j	101d4 <fast_fixed_dct8x8+0x90>
   10164:	fe042423          	sw	zero,-24(s0)
   10168:	0540006f          	j	101bc <fast_fixed_dct8x8+0x78>
   1016c:	fec42783          	lw	a5,-20(s0)
   10170:	00479793          	slli	a5,a5,0x4
   10174:	ddc42703          	lw	a4,-548(s0)
   10178:	00f70733          	add	a4,a4,a5
   1017c:	fe842783          	lw	a5,-24(s0)
   10180:	00179793          	slli	a5,a5,0x1
   10184:	00f707b3          	add	a5,a4,a5
   10188:	00079783          	lh	a5,0(a5)
   1018c:	00078693          	mv	a3,a5
   10190:	fec42783          	lw	a5,-20(s0)
   10194:	00379713          	slli	a4,a5,0x3
   10198:	fe842783          	lw	a5,-24(s0)
   1019c:	00f707b3          	add	a5,a4,a5
   101a0:	00279793          	slli	a5,a5,0x2
   101a4:	ff040713          	addi	a4,s0,-16
   101a8:	00f707b3          	add	a5,a4,a5
   101ac:	eed7ac23          	sw	a3,-264(a5)
   101b0:	fe842783          	lw	a5,-24(s0)
   101b4:	00178793          	addi	a5,a5,1
   101b8:	fef42423          	sw	a5,-24(s0)
   101bc:	fe842703          	lw	a4,-24(s0)
   101c0:	00700793          	li	a5,7
   101c4:	fae7d4e3          	bge	a5,a4,1016c <fast_fixed_dct8x8+0x28>
   101c8:	fec42783          	lw	a5,-20(s0)
   101cc:	00178793          	addi	a5,a5,1
   101d0:	fef42623          	sw	a5,-20(s0)
   101d4:	fec42703          	lw	a4,-20(s0)
   101d8:	00700793          	li	a5,7
   101dc:	f8e7d4e3          	bge	a5,a4,10164 <fast_fixed_dct8x8+0x20>
   101e0:	fe042623          	sw	zero,-20(s0)
   101e4:	03c0006f          	j	10220 <fast_fixed_dct8x8+0xdc>
   101e8:	ee840713          	addi	a4,s0,-280
   101ec:	fec42783          	lw	a5,-20(s0)
   101f0:	00579793          	slli	a5,a5,0x5
   101f4:	00f706b3          	add	a3,a4,a5
   101f8:	de840713          	addi	a4,s0,-536
   101fc:	fec42783          	lw	a5,-20(s0)
   10200:	00579793          	slli	a5,a5,0x5
   10204:	00f707b3          	add	a5,a4,a5
   10208:	00078593          	mv	a1,a5
   1020c:	00068513          	mv	a0,a3
   10210:	188000ef          	jal	ra,10398 <fast_fixed_dct8>
   10214:	fec42783          	lw	a5,-20(s0)
   10218:	00178793          	addi	a5,a5,1
   1021c:	fef42623          	sw	a5,-20(s0)
   10220:	fec42703          	lw	a4,-20(s0)
   10224:	00700793          	li	a5,7
   10228:	fce7d0e3          	bge	a5,a4,101e8 <fast_fixed_dct8x8+0xa4>
   1022c:	fe042623          	sw	zero,-20(s0)
   10230:	0700006f          	j	102a0 <fast_fixed_dct8x8+0x15c>
   10234:	fe042423          	sw	zero,-24(s0)
   10238:	0500006f          	j	10288 <fast_fixed_dct8x8+0x144>
   1023c:	fe842783          	lw	a5,-24(s0)
   10240:	00379713          	slli	a4,a5,0x3
   10244:	fec42783          	lw	a5,-20(s0)
   10248:	00f707b3          	add	a5,a4,a5
   1024c:	00279793          	slli	a5,a5,0x2
   10250:	ff040713          	addi	a4,s0,-16
   10254:	00f707b3          	add	a5,a4,a5
   10258:	df87a703          	lw	a4,-520(a5)
   1025c:	fec42783          	lw	a5,-20(s0)
   10260:	00379693          	slli	a3,a5,0x3
   10264:	fe842783          	lw	a5,-24(s0)
   10268:	00f687b3          	add	a5,a3,a5
   1026c:	00279793          	slli	a5,a5,0x2
   10270:	ff040693          	addi	a3,s0,-16
   10274:	00f687b3          	add	a5,a3,a5
   10278:	eee7ac23          	sw	a4,-264(a5)
   1027c:	fe842783          	lw	a5,-24(s0)
   10280:	00178793          	addi	a5,a5,1
   10284:	fef42423          	sw	a5,-24(s0)
   10288:	fe842703          	lw	a4,-24(s0)
   1028c:	00700793          	li	a5,7
   10290:	fae7d6e3          	bge	a5,a4,1023c <fast_fixed_dct8x8+0xf8>
   10294:	fec42783          	lw	a5,-20(s0)
   10298:	00178793          	addi	a5,a5,1
   1029c:	fef42623          	sw	a5,-20(s0)
   102a0:	fec42703          	lw	a4,-20(s0)
   102a4:	00700793          	li	a5,7
   102a8:	f8e7d6e3          	bge	a5,a4,10234 <fast_fixed_dct8x8+0xf0>
   102ac:	fe042623          	sw	zero,-20(s0)
   102b0:	03c0006f          	j	102ec <fast_fixed_dct8x8+0x1a8>
   102b4:	ee840713          	addi	a4,s0,-280
   102b8:	fec42783          	lw	a5,-20(s0)
   102bc:	00579793          	slli	a5,a5,0x5
   102c0:	00f706b3          	add	a3,a4,a5
   102c4:	de840713          	addi	a4,s0,-536
   102c8:	fec42783          	lw	a5,-20(s0)
   102cc:	00579793          	slli	a5,a5,0x5
   102d0:	00f707b3          	add	a5,a4,a5
   102d4:	00078593          	mv	a1,a5
   102d8:	00068513          	mv	a0,a3
   102dc:	0bc000ef          	jal	ra,10398 <fast_fixed_dct8>
   102e0:	fec42783          	lw	a5,-20(s0)
   102e4:	00178793          	addi	a5,a5,1
   102e8:	fef42623          	sw	a5,-20(s0)
   102ec:	fec42703          	lw	a4,-20(s0)
   102f0:	00700793          	li	a5,7
   102f4:	fce7d0e3          	bge	a5,a4,102b4 <fast_fixed_dct8x8+0x170>
   102f8:	fe042623          	sw	zero,-20(s0)
   102fc:	0780006f          	j	10374 <fast_fixed_dct8x8+0x230>
   10300:	fe042423          	sw	zero,-24(s0)
   10304:	0580006f          	j	1035c <fast_fixed_dct8x8+0x218>
   10308:	fe842783          	lw	a5,-24(s0)
   1030c:	00379713          	slli	a4,a5,0x3
   10310:	fec42783          	lw	a5,-20(s0)
   10314:	00f707b3          	add	a5,a4,a5
   10318:	00279793          	slli	a5,a5,0x2
   1031c:	ff040713          	addi	a4,s0,-16
   10320:	00f707b3          	add	a5,a4,a5
   10324:	df87a603          	lw	a2,-520(a5)
   10328:	fec42783          	lw	a5,-20(s0)
   1032c:	00479793          	slli	a5,a5,0x4
   10330:	dd842703          	lw	a4,-552(s0)
   10334:	00f706b3          	add	a3,a4,a5
   10338:	01061713          	slli	a4,a2,0x10
   1033c:	41075713          	srai	a4,a4,0x10
   10340:	fe842783          	lw	a5,-24(s0)
   10344:	00179793          	slli	a5,a5,0x1
   10348:	00f687b3          	add	a5,a3,a5
   1034c:	00e79023          	sh	a4,0(a5)
   10350:	fe842783          	lw	a5,-24(s0)
   10354:	00178793          	addi	a5,a5,1
   10358:	fef42423          	sw	a5,-24(s0)
   1035c:	fe842703          	lw	a4,-24(s0)
   10360:	00700793          	li	a5,7
   10364:	fae7d2e3          	bge	a5,a4,10308 <fast_fixed_dct8x8+0x1c4>
   10368:	fec42783          	lw	a5,-20(s0)
   1036c:	00178793          	addi	a5,a5,1
   10370:	fef42623          	sw	a5,-20(s0)
   10374:	fec42703          	lw	a4,-20(s0)
   10378:	00700793          	li	a5,7
   1037c:	f8e7d2e3          	bge	a5,a4,10300 <fast_fixed_dct8x8+0x1bc>
   10380:	00000013          	nop
   10384:	00000013          	nop
   10388:	22c12083          	lw	ra,556(sp)
   1038c:	22812403          	lw	s0,552(sp)
   10390:	23010113          	addi	sp,sp,560
   10394:	00008067          	ret

00010398 <fast_fixed_dct8>:
   10398:	f9010113          	addi	sp,sp,-112
   1039c:	06812623          	sw	s0,108(sp)
   103a0:	07010413          	addi	s0,sp,112
   103a4:	f8a42e23          	sw	a0,-100(s0)
   103a8:	f8b42c23          	sw	a1,-104(s0)
   103ac:	fe042623          	sw	zero,-20(s0)
   103b0:	0580006f          	j	10408 <fast_fixed_dct8+0x70>
   103b4:	fec42783          	lw	a5,-20(s0)
   103b8:	00279793          	slli	a5,a5,0x2
   103bc:	f9c42703          	lw	a4,-100(s0)
   103c0:	00f707b3          	add	a5,a4,a5
   103c4:	0007a703          	lw	a4,0(a5)
   103c8:	00700693          	li	a3,7
   103cc:	fec42783          	lw	a5,-20(s0)
   103d0:	40f687b3          	sub	a5,a3,a5
   103d4:	00279793          	slli	a5,a5,0x2
   103d8:	f9c42683          	lw	a3,-100(s0)
   103dc:	00f687b3          	add	a5,a3,a5
   103e0:	0007a783          	lw	a5,0(a5)
   103e4:	00f70733          	add	a4,a4,a5
   103e8:	fec42783          	lw	a5,-20(s0)
   103ec:	00279793          	slli	a5,a5,0x2
   103f0:	ff040693          	addi	a3,s0,-16
   103f4:	00f687b3          	add	a5,a3,a5
   103f8:	fce7ae23          	sw	a4,-36(a5)
   103fc:	fec42783          	lw	a5,-20(s0)
   10400:	00178793          	addi	a5,a5,1
   10404:	fef42623          	sw	a5,-20(s0)
   10408:	fec42703          	lw	a4,-20(s0)
   1040c:	00300793          	li	a5,3
   10410:	fae7d2e3          	bge	a5,a4,103b4 <fast_fixed_dct8+0x1c>
   10414:	00400793          	li	a5,4
   10418:	fef42623          	sw	a5,-20(s0)
   1041c:	0580006f          	j	10474 <fast_fixed_dct8+0xdc>
   10420:	00700713          	li	a4,7
   10424:	fec42783          	lw	a5,-20(s0)
   10428:	40f707b3          	sub	a5,a4,a5
   1042c:	00279793          	slli	a5,a5,0x2
   10430:	f9c42703          	lw	a4,-100(s0)
   10434:	00f707b3          	add	a5,a4,a5
   10438:	0007a703          	lw	a4,0(a5)
   1043c:	fec42783          	lw	a5,-20(s0)
   10440:	00279793          	slli	a5,a5,0x2
   10444:	f9c42683          	lw	a3,-100(s0)
   10448:	00f687b3          	add	a5,a3,a5
   1044c:	0007a783          	lw	a5,0(a5)
   10450:	40f70733          	sub	a4,a4,a5
   10454:	fec42783          	lw	a5,-20(s0)
   10458:	00279793          	slli	a5,a5,0x2
   1045c:	ff040693          	addi	a3,s0,-16
   10460:	00f687b3          	add	a5,a3,a5
   10464:	fce7ae23          	sw	a4,-36(a5)
   10468:	fec42783          	lw	a5,-20(s0)
   1046c:	00178793          	addi	a5,a5,1
   10470:	fef42623          	sw	a5,-20(s0)
   10474:	fec42703          	lw	a4,-20(s0)
   10478:	00700793          	li	a5,7
   1047c:	fae7d2e3          	bge	a5,a4,10420 <fast_fixed_dct8+0x88>
   10480:	fcc42703          	lw	a4,-52(s0)
   10484:	fd842783          	lw	a5,-40(s0)
   10488:	00f707b3          	add	a5,a4,a5
   1048c:	faf42623          	sw	a5,-84(s0)
   10490:	fd042703          	lw	a4,-48(s0)
   10494:	fd442783          	lw	a5,-44(s0)
   10498:	00f707b3          	add	a5,a4,a5
   1049c:	faf42823          	sw	a5,-80(s0)
   104a0:	fd042703          	lw	a4,-48(s0)
   104a4:	fd442783          	lw	a5,-44(s0)
   104a8:	40f707b3          	sub	a5,a4,a5
   104ac:	faf42a23          	sw	a5,-76(s0)
   104b0:	fcc42703          	lw	a4,-52(s0)
   104b4:	fd842783          	lw	a5,-40(s0)
   104b8:	40f707b3          	sub	a5,a4,a5
   104bc:	faf42c23          	sw	a5,-72(s0)
   104c0:	fdc42783          	lw	a5,-36(s0)
   104c4:	faf42e23          	sw	a5,-68(s0)
   104c8:	fe442703          	lw	a4,-28(s0)
   104cc:	fe042783          	lw	a5,-32(s0)
   104d0:	40f706b3          	sub	a3,a4,a5
   104d4:	00068713          	mv	a4,a3
   104d8:	00171793          	slli	a5,a4,0x1
   104dc:	00078713          	mv	a4,a5
   104e0:	00d70733          	add	a4,a4,a3
   104e4:	00471793          	slli	a5,a4,0x4
   104e8:	40e787b3          	sub	a5,a5,a4
   104ec:	00279793          	slli	a5,a5,0x2
   104f0:	00d787b3          	add	a5,a5,a3
   104f4:	00679793          	slli	a5,a5,0x6
   104f8:	00d787b3          	add	a5,a5,a3
   104fc:	00179793          	slli	a5,a5,0x1
   10500:	40f7d793          	srai	a5,a5,0xf
   10504:	fcf42023          	sw	a5,-64(s0)
   10508:	fe042683          	lw	a3,-32(s0)
   1050c:	00068713          	mv	a4,a3
   10510:	00171793          	slli	a5,a4,0x1
   10514:	00078713          	mv	a4,a5
   10518:	00d70733          	add	a4,a4,a3
   1051c:	00471793          	slli	a5,a4,0x4
   10520:	40e787b3          	sub	a5,a5,a4
   10524:	00279793          	slli	a5,a5,0x2
   10528:	00d787b3          	add	a5,a5,a3
   1052c:	00679793          	slli	a5,a5,0x6
   10530:	00d787b3          	add	a5,a5,a3
   10534:	00279793          	slli	a5,a5,0x2
   10538:	40f7d793          	srai	a5,a5,0xf
   1053c:	fcf42223          	sw	a5,-60(s0)
   10540:	fe842783          	lw	a5,-24(s0)
   10544:	fcf42423          	sw	a5,-56(s0)
   10548:	fac42703          	lw	a4,-84(s0)
   1054c:	fb042783          	lw	a5,-80(s0)
   10550:	00f706b3          	add	a3,a4,a5
   10554:	00068713          	mv	a4,a3
   10558:	00171793          	slli	a5,a4,0x1
   1055c:	00078713          	mv	a4,a5
   10560:	00d70733          	add	a4,a4,a3
   10564:	00471793          	slli	a5,a4,0x4
   10568:	40e787b3          	sub	a5,a5,a4
   1056c:	00279793          	slli	a5,a5,0x2
   10570:	00d787b3          	add	a5,a5,a3
   10574:	00679793          	slli	a5,a5,0x6
   10578:	00d787b3          	add	a5,a5,a3
   1057c:	00179793          	slli	a5,a5,0x1
   10580:	40f7d793          	srai	a5,a5,0xf
   10584:	fcf42623          	sw	a5,-52(s0)
   10588:	fac42703          	lw	a4,-84(s0)
   1058c:	fb042783          	lw	a5,-80(s0)
   10590:	40f706b3          	sub	a3,a4,a5
   10594:	00068713          	mv	a4,a3
   10598:	00171793          	slli	a5,a4,0x1
   1059c:	00078713          	mv	a4,a5
   105a0:	00d70733          	add	a4,a4,a3
   105a4:	00471793          	slli	a5,a4,0x4
   105a8:	40e787b3          	sub	a5,a5,a4
   105ac:	00279793          	slli	a5,a5,0x2
   105b0:	00d787b3          	add	a5,a5,a3
   105b4:	00679793          	slli	a5,a5,0x6
   105b8:	00d787b3          	add	a5,a5,a3
   105bc:	00179793          	slli	a5,a5,0x1
   105c0:	40f7d793          	srai	a5,a5,0xf
   105c4:	fcf42823          	sw	a5,-48(s0)
   105c8:	fb442703          	lw	a4,-76(s0)
   105cc:	00070793          	mv	a5,a4
   105d0:	00179793          	slli	a5,a5,0x1
   105d4:	00e787b3          	add	a5,a5,a4
   105d8:	00479793          	slli	a5,a5,0x4
   105dc:	00e787b3          	add	a5,a5,a4
   105e0:	00679793          	slli	a5,a5,0x6
   105e4:	40e787b3          	sub	a5,a5,a4
   105e8:	00279793          	slli	a5,a5,0x2
   105ec:	40f7d693          	srai	a3,a5,0xf
   105f0:	fb842703          	lw	a4,-72(s0)
   105f4:	00070793          	mv	a5,a4
   105f8:	00479793          	slli	a5,a5,0x4
   105fc:	40e787b3          	sub	a5,a5,a4
   10600:	00279793          	slli	a5,a5,0x2
   10604:	40e787b3          	sub	a5,a5,a4
   10608:	00379793          	slli	a5,a5,0x3
   1060c:	00e787b3          	add	a5,a5,a4
   10610:	00579793          	slli	a5,a5,0x5
   10614:	00e787b3          	add	a5,a5,a4
   10618:	00179793          	slli	a5,a5,0x1
   1061c:	40f7d793          	srai	a5,a5,0xf
   10620:	00f687b3          	add	a5,a3,a5
   10624:	fcf42a23          	sw	a5,-44(s0)
   10628:	fb842703          	lw	a4,-72(s0)
   1062c:	00070793          	mv	a5,a4
   10630:	00179793          	slli	a5,a5,0x1
   10634:	00e787b3          	add	a5,a5,a4
   10638:	00479793          	slli	a5,a5,0x4
   1063c:	00e787b3          	add	a5,a5,a4
   10640:	00679793          	slli	a5,a5,0x6
   10644:	40e787b3          	sub	a5,a5,a4
   10648:	00279793          	slli	a5,a5,0x2
   1064c:	40f7d693          	srai	a3,a5,0xf
   10650:	fb442703          	lw	a4,-76(s0)
   10654:	00070793          	mv	a5,a4
   10658:	00479793          	slli	a5,a5,0x4
   1065c:	40e787b3          	sub	a5,a5,a4
   10660:	00279793          	slli	a5,a5,0x2
   10664:	40e787b3          	sub	a5,a5,a4
   10668:	00379793          	slli	a5,a5,0x3
   1066c:	00e787b3          	add	a5,a5,a4
   10670:	00579793          	slli	a5,a5,0x5
   10674:	00e787b3          	add	a5,a5,a4
   10678:	00179793          	slli	a5,a5,0x1
   1067c:	40f7d793          	srai	a5,a5,0xf
   10680:	40f687b3          	sub	a5,a3,a5
   10684:	fcf42c23          	sw	a5,-40(s0)
   10688:	fbc42703          	lw	a4,-68(s0)
   1068c:	fc042783          	lw	a5,-64(s0)
   10690:	00f707b3          	add	a5,a4,a5
   10694:	fcf42e23          	sw	a5,-36(s0)
   10698:	fbc42703          	lw	a4,-68(s0)
   1069c:	fc042783          	lw	a5,-64(s0)
   106a0:	40f707b3          	sub	a5,a4,a5
   106a4:	fef42023          	sw	a5,-32(s0)
   106a8:	fc842703          	lw	a4,-56(s0)
   106ac:	fc442783          	lw	a5,-60(s0)
   106b0:	40f707b3          	sub	a5,a4,a5
   106b4:	fef42223          	sw	a5,-28(s0)
   106b8:	fc442703          	lw	a4,-60(s0)
   106bc:	fc842783          	lw	a5,-56(s0)
   106c0:	00f707b3          	add	a5,a4,a5
   106c4:	fef42423          	sw	a5,-24(s0)
   106c8:	fcc42783          	lw	a5,-52(s0)
   106cc:	4017d713          	srai	a4,a5,0x1
   106d0:	f9842783          	lw	a5,-104(s0)
   106d4:	00e7a023          	sw	a4,0(a5)
   106d8:	fd042703          	lw	a4,-48(s0)
   106dc:	f9842783          	lw	a5,-104(s0)
   106e0:	01078793          	addi	a5,a5,16
   106e4:	40175713          	srai	a4,a4,0x1
   106e8:	00e7a023          	sw	a4,0(a5)
   106ec:	fd442703          	lw	a4,-44(s0)
   106f0:	f9842783          	lw	a5,-104(s0)
   106f4:	00878793          	addi	a5,a5,8
   106f8:	40175713          	srai	a4,a4,0x1
   106fc:	00e7a023          	sw	a4,0(a5)
   10700:	fd842703          	lw	a4,-40(s0)
   10704:	f9842783          	lw	a5,-104(s0)
   10708:	01878793          	addi	a5,a5,24
   1070c:	40175713          	srai	a4,a4,0x1
   10710:	00e7a023          	sw	a4,0(a5)
   10714:	fdc42703          	lw	a4,-36(s0)
   10718:	00070793          	mv	a5,a4
   1071c:	00179793          	slli	a5,a5,0x1
   10720:	00e787b3          	add	a5,a5,a4
   10724:	00379793          	slli	a5,a5,0x3
   10728:	00e787b3          	add	a5,a5,a4
   1072c:	00579793          	slli	a5,a5,0x5
   10730:	40e787b3          	sub	a5,a5,a4
   10734:	00379793          	slli	a5,a5,0x3
   10738:	00e787b3          	add	a5,a5,a4
   1073c:	40f7d693          	srai	a3,a5,0xf
   10740:	fe842703          	lw	a4,-24(s0)
   10744:	00070793          	mv	a5,a4
   10748:	00679793          	slli	a5,a5,0x6
   1074c:	40e787b3          	sub	a5,a5,a4
   10750:	00279793          	slli	a5,a5,0x2
   10754:	40e787b3          	sub	a5,a5,a4
   10758:	00479793          	slli	a5,a5,0x4
   1075c:	00e787b3          	add	a5,a5,a4
   10760:	00279793          	slli	a5,a5,0x2
   10764:	00e787b3          	add	a5,a5,a4
   10768:	00179793          	slli	a5,a5,0x1
   1076c:	40f7d793          	srai	a5,a5,0xf
   10770:	00f68733          	add	a4,a3,a5
   10774:	f9842783          	lw	a5,-104(s0)
   10778:	00478793          	addi	a5,a5,4
   1077c:	40175713          	srai	a4,a4,0x1
   10780:	00e7a023          	sw	a4,0(a5)
   10784:	fe042703          	lw	a4,-32(s0)
   10788:	00070793          	mv	a5,a4
   1078c:	00279793          	slli	a5,a5,0x2
   10790:	00e787b3          	add	a5,a5,a4
   10794:	00479693          	slli	a3,a5,0x4
   10798:	00d787b3          	add	a5,a5,a3
   1079c:	00379793          	slli	a5,a5,0x3
   107a0:	00e787b3          	add	a5,a5,a4
   107a4:	00379793          	slli	a5,a5,0x3
   107a8:	00e787b3          	add	a5,a5,a4
   107ac:	00279713          	slli	a4,a5,0x2
   107b0:	00e787b3          	add	a5,a5,a4
   107b4:	40f7d693          	srai	a3,a5,0xf
   107b8:	fe442703          	lw	a4,-28(s0)
   107bc:	00070793          	mv	a5,a4
   107c0:	00379793          	slli	a5,a5,0x3
   107c4:	40e787b3          	sub	a5,a5,a4
   107c8:	00679613          	slli	a2,a5,0x6
   107cc:	00c787b3          	add	a5,a5,a2
   107d0:	00379793          	slli	a5,a5,0x3
   107d4:	00e787b3          	add	a5,a5,a4
   107d8:	00279713          	slli	a4,a5,0x2
   107dc:	00e787b3          	add	a5,a5,a4
   107e0:	40f7d793          	srai	a5,a5,0xf
   107e4:	00f68733          	add	a4,a3,a5
   107e8:	f9842783          	lw	a5,-104(s0)
   107ec:	01478793          	addi	a5,a5,20
   107f0:	40175713          	srai	a4,a4,0x1
   107f4:	00e7a023          	sw	a4,0(a5)
   107f8:	fe442703          	lw	a4,-28(s0)
   107fc:	00070793          	mv	a5,a4
   10800:	00279793          	slli	a5,a5,0x2
   10804:	00e787b3          	add	a5,a5,a4
   10808:	00479693          	slli	a3,a5,0x4
   1080c:	00d787b3          	add	a5,a5,a3
   10810:	00379793          	slli	a5,a5,0x3
   10814:	00e787b3          	add	a5,a5,a4
   10818:	00379793          	slli	a5,a5,0x3
   1081c:	00e787b3          	add	a5,a5,a4
   10820:	00279713          	slli	a4,a5,0x2
   10824:	00e787b3          	add	a5,a5,a4
   10828:	40f7d693          	srai	a3,a5,0xf
   1082c:	fe042703          	lw	a4,-32(s0)
   10830:	00070793          	mv	a5,a4
   10834:	00379793          	slli	a5,a5,0x3
   10838:	40e787b3          	sub	a5,a5,a4
   1083c:	00679613          	slli	a2,a5,0x6
   10840:	00c787b3          	add	a5,a5,a2
   10844:	00379793          	slli	a5,a5,0x3
   10848:	00e787b3          	add	a5,a5,a4
   1084c:	00279713          	slli	a4,a5,0x2
   10850:	00e787b3          	add	a5,a5,a4
   10854:	40f7d793          	srai	a5,a5,0xf
   10858:	40f68733          	sub	a4,a3,a5
   1085c:	f9842783          	lw	a5,-104(s0)
   10860:	00c78793          	addi	a5,a5,12
   10864:	40175713          	srai	a4,a4,0x1
   10868:	00e7a023          	sw	a4,0(a5)
   1086c:	fe842703          	lw	a4,-24(s0)
   10870:	00070793          	mv	a5,a4
   10874:	00179793          	slli	a5,a5,0x1
   10878:	00e787b3          	add	a5,a5,a4
   1087c:	00379793          	slli	a5,a5,0x3
   10880:	00e787b3          	add	a5,a5,a4
   10884:	00579793          	slli	a5,a5,0x5
   10888:	40e787b3          	sub	a5,a5,a4
   1088c:	00379793          	slli	a5,a5,0x3
   10890:	00e787b3          	add	a5,a5,a4
   10894:	40f7d693          	srai	a3,a5,0xf
   10898:	fdc42703          	lw	a4,-36(s0)
   1089c:	00070793          	mv	a5,a4
   108a0:	00679793          	slli	a5,a5,0x6
   108a4:	40e787b3          	sub	a5,a5,a4
   108a8:	00279793          	slli	a5,a5,0x2
   108ac:	40e787b3          	sub	a5,a5,a4
   108b0:	00479793          	slli	a5,a5,0x4
   108b4:	00e787b3          	add	a5,a5,a4
   108b8:	00279793          	slli	a5,a5,0x2
   108bc:	00e787b3          	add	a5,a5,a4
   108c0:	00179793          	slli	a5,a5,0x1
   108c4:	40f7d793          	srai	a5,a5,0xf
   108c8:	40f68733          	sub	a4,a3,a5
   108cc:	f9842783          	lw	a5,-104(s0)
   108d0:	01c78793          	addi	a5,a5,28
   108d4:	40175713          	srai	a4,a4,0x1
   108d8:	00e7a023          	sw	a4,0(a5)
   108dc:	00000013          	nop
   108e0:	06c12403          	lw	s0,108(sp)
   108e4:	07010113          	addi	sp,sp,112
   108e8:	00008067          	ret

000108ec <print_block>:
   108ec:	fd010113          	addi	sp,sp,-48
   108f0:	02112623          	sw	ra,44(sp)
   108f4:	02812423          	sw	s0,40(sp)
   108f8:	03010413          	addi	s0,sp,48
   108fc:	fca42e23          	sw	a0,-36(s0)
   10900:	fe042623          	sw	zero,-20(s0)
   10904:	0680006f          	j	1096c <print_block+0x80>
   10908:	fe042423          	sw	zero,-24(s0)
   1090c:	0400006f          	j	1094c <print_block+0x60>
   10910:	fec42783          	lw	a5,-20(s0)
   10914:	00479793          	slli	a5,a5,0x4
   10918:	fdc42703          	lw	a4,-36(s0)
   1091c:	00f70733          	add	a4,a4,a5
   10920:	fe842783          	lw	a5,-24(s0)
   10924:	00179793          	slli	a5,a5,0x1
   10928:	00f707b3          	add	a5,a4,a5
   1092c:	00079783          	lh	a5,0(a5)
   10930:	00078593          	mv	a1,a5
   10934:	00015517          	auipc	a0,0x15
   10938:	26450513          	addi	a0,a0,612 # 25b98 <__clzsi2+0x50>
   1093c:	428000ef          	jal	ra,10d64 <printf>
   10940:	fe842783          	lw	a5,-24(s0)
   10944:	00178793          	addi	a5,a5,1
   10948:	fef42423          	sw	a5,-24(s0)
   1094c:	fe842703          	lw	a4,-24(s0)
   10950:	00700793          	li	a5,7
   10954:	fae7dee3          	bge	a5,a4,10910 <print_block+0x24>
   10958:	00a00513          	li	a0,10
   1095c:	45c000ef          	jal	ra,10db8 <putchar>
   10960:	fec42783          	lw	a5,-20(s0)
   10964:	00178793          	addi	a5,a5,1
   10968:	fef42623          	sw	a5,-20(s0)
   1096c:	fec42703          	lw	a4,-20(s0)
   10970:	00700793          	li	a5,7
   10974:	f8e7dae3          	bge	a5,a4,10908 <print_block+0x1c>
   10978:	00000013          	nop
   1097c:	00000013          	nop
   10980:	02c12083          	lw	ra,44(sp)
   10984:	02812403          	lw	s0,40(sp)
   10988:	03010113          	addi	sp,sp,48
   1098c:	00008067          	ret

00010990 <main>:
   10990:	e6010113          	addi	sp,sp,-416
   10994:	18112e23          	sw	ra,412(sp)
   10998:	18812c23          	sw	s0,408(sp)
   1099c:	1a010413          	addi	s0,sp,416
   109a0:	00015717          	auipc	a4,0x15
   109a4:	20070713          	addi	a4,a4,512 # 25ba0 <__clzsi2+0x58>
   109a8:	f6c40793          	addi	a5,s0,-148
   109ac:	00070693          	mv	a3,a4
   109b0:	08000713          	li	a4,128
   109b4:	00070613          	mv	a2,a4
   109b8:	00068593          	mv	a1,a3
   109bc:	00078513          	mv	a0,a5
   109c0:	160000ef          	jal	ra,10b20 <memcpy>
   109c4:	00015717          	auipc	a4,0x15
   109c8:	25c70713          	addi	a4,a4,604 # 25c20 <__clzsi2+0xd8>
   109cc:	eec40793          	addi	a5,s0,-276
   109d0:	00070693          	mv	a3,a4
   109d4:	08000713          	li	a4,128
   109d8:	00070613          	mv	a2,a4
   109dc:	00068593          	mv	a1,a3
   109e0:	00078513          	mv	a0,a5
   109e4:	13c000ef          	jal	ra,10b20 <memcpy>
   109e8:	fe042623          	sw	zero,-20(s0)
   109ec:	0380006f          	j	10a24 <main+0x94>
   109f0:	e6c40713          	addi	a4,s0,-404
   109f4:	f6c40793          	addi	a5,s0,-148
   109f8:	00070593          	mv	a1,a4
   109fc:	00078513          	mv	a0,a5
   10a00:	f44ff0ef          	jal	ra,10144 <fast_fixed_dct8x8>
   10a04:	f6c40713          	addi	a4,s0,-148
   10a08:	e6c40793          	addi	a5,s0,-404
   10a0c:	00070593          	mv	a1,a4
   10a10:	00078513          	mv	a0,a5
   10a14:	f30ff0ef          	jal	ra,10144 <fast_fixed_dct8x8>
   10a18:	fec42783          	lw	a5,-20(s0)
   10a1c:	00178793          	addi	a5,a5,1
   10a20:	fef42623          	sw	a5,-20(s0)
   10a24:	fec42703          	lw	a4,-20(s0)
   10a28:	1ff00793          	li	a5,511
   10a2c:	fce7d2e3          	bge	a5,a4,109f0 <main+0x60>
   10a30:	f6c40793          	addi	a5,s0,-148
   10a34:	00078513          	mv	a0,a5
   10a38:	eb5ff0ef          	jal	ra,108ec <print_block>
   10a3c:	00000793          	li	a5,0
   10a40:	00078513          	mv	a0,a5
   10a44:	19c12083          	lw	ra,412(sp)
   10a48:	19812403          	lw	s0,408(sp)
   10a4c:	1a010113          	addi	sp,sp,416
   10a50:	00008067          	ret

00010a54 <exit>:
   10a54:	ff010113          	addi	sp,sp,-16
   10a58:	00000593          	li	a1,0
   10a5c:	00812423          	sw	s0,8(sp)
   10a60:	00112623          	sw	ra,12(sp)
   10a64:	00050413          	mv	s0,a0
   10a68:	28c030ef          	jal	ra,13cf4 <__call_exitprocs>
   10a6c:	1b81a503          	lw	a0,440(gp) # 27a78 <_global_impure_ptr>
   10a70:	03c52783          	lw	a5,60(a0)
   10a74:	00078463          	beqz	a5,10a7c <exit+0x28>
   10a78:	000780e7          	jalr	a5
   10a7c:	00040513          	mv	a0,s0
   10a80:	7e10f0ef          	jal	ra,20a60 <_exit>

00010a84 <__libc_init_array>:
   10a84:	ff010113          	addi	sp,sp,-16
   10a88:	00812423          	sw	s0,8(sp)
   10a8c:	01212023          	sw	s2,0(sp)
   10a90:	00027437          	lui	s0,0x27
   10a94:	00027937          	lui	s2,0x27
   10a98:	0b440793          	addi	a5,s0,180 # 270b4 <__init_array_start>
   10a9c:	0b490913          	addi	s2,s2,180 # 270b4 <__init_array_start>
   10aa0:	40f90933          	sub	s2,s2,a5
   10aa4:	00112623          	sw	ra,12(sp)
   10aa8:	00912223          	sw	s1,4(sp)
   10aac:	40295913          	srai	s2,s2,0x2
   10ab0:	02090063          	beqz	s2,10ad0 <__libc_init_array+0x4c>
   10ab4:	0b440413          	addi	s0,s0,180
   10ab8:	00000493          	li	s1,0
   10abc:	00042783          	lw	a5,0(s0)
   10ac0:	00148493          	addi	s1,s1,1
   10ac4:	00440413          	addi	s0,s0,4
   10ac8:	000780e7          	jalr	a5
   10acc:	fe9918e3          	bne	s2,s1,10abc <__libc_init_array+0x38>
   10ad0:	00027437          	lui	s0,0x27
   10ad4:	00027937          	lui	s2,0x27
   10ad8:	0b440793          	addi	a5,s0,180 # 270b4 <__init_array_start>
   10adc:	0bc90913          	addi	s2,s2,188 # 270bc <__do_global_dtors_aux_fini_array_entry>
   10ae0:	40f90933          	sub	s2,s2,a5
   10ae4:	40295913          	srai	s2,s2,0x2
   10ae8:	02090063          	beqz	s2,10b08 <__libc_init_array+0x84>
   10aec:	0b440413          	addi	s0,s0,180
   10af0:	00000493          	li	s1,0
   10af4:	00042783          	lw	a5,0(s0)
   10af8:	00148493          	addi	s1,s1,1
   10afc:	00440413          	addi	s0,s0,4
   10b00:	000780e7          	jalr	a5
   10b04:	fe9918e3          	bne	s2,s1,10af4 <__libc_init_array+0x70>
   10b08:	00c12083          	lw	ra,12(sp)
   10b0c:	00812403          	lw	s0,8(sp)
   10b10:	00412483          	lw	s1,4(sp)
   10b14:	00012903          	lw	s2,0(sp)
   10b18:	01010113          	addi	sp,sp,16
   10b1c:	00008067          	ret

00010b20 <memcpy>:
   10b20:	00a5c7b3          	xor	a5,a1,a0
   10b24:	0037f793          	andi	a5,a5,3
   10b28:	00c508b3          	add	a7,a0,a2
   10b2c:	06079663          	bnez	a5,10b98 <memcpy+0x78>
   10b30:	00300793          	li	a5,3
   10b34:	06c7f263          	bgeu	a5,a2,10b98 <memcpy+0x78>
   10b38:	00357793          	andi	a5,a0,3
   10b3c:	00050713          	mv	a4,a0
   10b40:	0c079a63          	bnez	a5,10c14 <memcpy+0xf4>
   10b44:	ffc8f613          	andi	a2,a7,-4
   10b48:	40e606b3          	sub	a3,a2,a4
   10b4c:	02000793          	li	a5,32
   10b50:	02000293          	li	t0,32
   10b54:	06d7c263          	blt	a5,a3,10bb8 <memcpy+0x98>
   10b58:	00058693          	mv	a3,a1
   10b5c:	00070793          	mv	a5,a4
   10b60:	02c77863          	bgeu	a4,a2,10b90 <memcpy+0x70>
   10b64:	0006a803          	lw	a6,0(a3)
   10b68:	00478793          	addi	a5,a5,4
   10b6c:	00468693          	addi	a3,a3,4
   10b70:	ff07ae23          	sw	a6,-4(a5)
   10b74:	fec7e8e3          	bltu	a5,a2,10b64 <memcpy+0x44>
   10b78:	fff60793          	addi	a5,a2,-1
   10b7c:	40e787b3          	sub	a5,a5,a4
   10b80:	ffc7f793          	andi	a5,a5,-4
   10b84:	00478793          	addi	a5,a5,4
   10b88:	00f70733          	add	a4,a4,a5
   10b8c:	00f585b3          	add	a1,a1,a5
   10b90:	01176863          	bltu	a4,a7,10ba0 <memcpy+0x80>
   10b94:	00008067          	ret
   10b98:	00050713          	mv	a4,a0
   10b9c:	ff157ce3          	bgeu	a0,a7,10b94 <memcpy+0x74>
   10ba0:	0005c783          	lbu	a5,0(a1)
   10ba4:	00170713          	addi	a4,a4,1
   10ba8:	00158593          	addi	a1,a1,1
   10bac:	fef70fa3          	sb	a5,-1(a4)
   10bb0:	ff1768e3          	bltu	a4,a7,10ba0 <memcpy+0x80>
   10bb4:	00008067          	ret
   10bb8:	0045a683          	lw	a3,4(a1)
   10bbc:	01c5a783          	lw	a5,28(a1)
   10bc0:	0005af83          	lw	t6,0(a1)
   10bc4:	0085af03          	lw	t5,8(a1)
   10bc8:	00c5ae83          	lw	t4,12(a1)
   10bcc:	0105ae03          	lw	t3,16(a1)
   10bd0:	0145a303          	lw	t1,20(a1)
   10bd4:	0185a803          	lw	a6,24(a1)
   10bd8:	00d72223          	sw	a3,4(a4)
   10bdc:	0205a683          	lw	a3,32(a1)
   10be0:	01f72023          	sw	t6,0(a4)
   10be4:	01e72423          	sw	t5,8(a4)
   10be8:	01d72623          	sw	t4,12(a4)
   10bec:	01c72823          	sw	t3,16(a4)
   10bf0:	00672a23          	sw	t1,20(a4)
   10bf4:	01072c23          	sw	a6,24(a4)
   10bf8:	00f72e23          	sw	a5,28(a4)
   10bfc:	02470713          	addi	a4,a4,36
   10c00:	40e607b3          	sub	a5,a2,a4
   10c04:	fed72e23          	sw	a3,-4(a4)
   10c08:	02458593          	addi	a1,a1,36
   10c0c:	faf2c6e3          	blt	t0,a5,10bb8 <memcpy+0x98>
   10c10:	f49ff06f          	j	10b58 <memcpy+0x38>
   10c14:	0005c683          	lbu	a3,0(a1)
   10c18:	00170713          	addi	a4,a4,1
   10c1c:	00377793          	andi	a5,a4,3
   10c20:	fed70fa3          	sb	a3,-1(a4)
   10c24:	00158593          	addi	a1,a1,1
   10c28:	f0078ee3          	beqz	a5,10b44 <memcpy+0x24>
   10c2c:	0005c683          	lbu	a3,0(a1)
   10c30:	00170713          	addi	a4,a4,1
   10c34:	00377793          	andi	a5,a4,3
   10c38:	fed70fa3          	sb	a3,-1(a4)
   10c3c:	00158593          	addi	a1,a1,1
   10c40:	fc079ae3          	bnez	a5,10c14 <memcpy+0xf4>
   10c44:	f01ff06f          	j	10b44 <memcpy+0x24>

00010c48 <memset>:
   10c48:	00f00313          	li	t1,15
   10c4c:	00050713          	mv	a4,a0
   10c50:	02c37e63          	bgeu	t1,a2,10c8c <memset+0x44>
   10c54:	00f77793          	andi	a5,a4,15
   10c58:	0a079063          	bnez	a5,10cf8 <memset+0xb0>
   10c5c:	08059263          	bnez	a1,10ce0 <memset+0x98>
   10c60:	ff067693          	andi	a3,a2,-16
   10c64:	00f67613          	andi	a2,a2,15
   10c68:	00e686b3          	add	a3,a3,a4
   10c6c:	00b72023          	sw	a1,0(a4)
   10c70:	00b72223          	sw	a1,4(a4)
   10c74:	00b72423          	sw	a1,8(a4)
   10c78:	00b72623          	sw	a1,12(a4)
   10c7c:	01070713          	addi	a4,a4,16
   10c80:	fed766e3          	bltu	a4,a3,10c6c <memset+0x24>
   10c84:	00061463          	bnez	a2,10c8c <memset+0x44>
   10c88:	00008067          	ret
   10c8c:	40c306b3          	sub	a3,t1,a2
   10c90:	00269693          	slli	a3,a3,0x2
   10c94:	00000297          	auipc	t0,0x0
   10c98:	005686b3          	add	a3,a3,t0
   10c9c:	00c68067          	jr	12(a3)
   10ca0:	00b70723          	sb	a1,14(a4)
   10ca4:	00b706a3          	sb	a1,13(a4)
   10ca8:	00b70623          	sb	a1,12(a4)
   10cac:	00b705a3          	sb	a1,11(a4)
   10cb0:	00b70523          	sb	a1,10(a4)
   10cb4:	00b704a3          	sb	a1,9(a4)
   10cb8:	00b70423          	sb	a1,8(a4)
   10cbc:	00b703a3          	sb	a1,7(a4)
   10cc0:	00b70323          	sb	a1,6(a4)
   10cc4:	00b702a3          	sb	a1,5(a4)
   10cc8:	00b70223          	sb	a1,4(a4)
   10ccc:	00b701a3          	sb	a1,3(a4)
   10cd0:	00b70123          	sb	a1,2(a4)
   10cd4:	00b700a3          	sb	a1,1(a4)
   10cd8:	00b70023          	sb	a1,0(a4)
   10cdc:	00008067          	ret
   10ce0:	0ff5f593          	andi	a1,a1,255
   10ce4:	00859693          	slli	a3,a1,0x8
   10ce8:	00d5e5b3          	or	a1,a1,a3
   10cec:	01059693          	slli	a3,a1,0x10
   10cf0:	00d5e5b3          	or	a1,a1,a3
   10cf4:	f6dff06f          	j	10c60 <memset+0x18>
   10cf8:	00279693          	slli	a3,a5,0x2
   10cfc:	00000297          	auipc	t0,0x0
   10d00:	005686b3          	add	a3,a3,t0
   10d04:	00008293          	mv	t0,ra
   10d08:	fa0680e7          	jalr	-96(a3)
   10d0c:	00028093          	mv	ra,t0
   10d10:	ff078793          	addi	a5,a5,-16
   10d14:	40f70733          	sub	a4,a4,a5
   10d18:	00f60633          	add	a2,a2,a5
   10d1c:	f6c378e3          	bgeu	t1,a2,10c8c <memset+0x44>
   10d20:	f3dff06f          	j	10c5c <memset+0x14>

00010d24 <_printf_r>:
   10d24:	fc010113          	addi	sp,sp,-64
   10d28:	02c12423          	sw	a2,40(sp)
   10d2c:	02d12623          	sw	a3,44(sp)
   10d30:	02e12823          	sw	a4,48(sp)
   10d34:	02f12a23          	sw	a5,52(sp)
   10d38:	03012c23          	sw	a6,56(sp)
   10d3c:	03112e23          	sw	a7,60(sp)
   10d40:	00058613          	mv	a2,a1
   10d44:	00852583          	lw	a1,8(a0)
   10d48:	02810693          	addi	a3,sp,40
   10d4c:	00112e23          	sw	ra,28(sp)
   10d50:	00d12623          	sw	a3,12(sp)
   10d54:	1b4000ef          	jal	ra,10f08 <_vfprintf_r>
   10d58:	01c12083          	lw	ra,28(sp)
   10d5c:	04010113          	addi	sp,sp,64
   10d60:	00008067          	ret

00010d64 <printf>:
   10d64:	1c01a303          	lw	t1,448(gp) # 27a80 <_impure_ptr>
   10d68:	fc010113          	addi	sp,sp,-64
   10d6c:	02c12423          	sw	a2,40(sp)
   10d70:	02d12623          	sw	a3,44(sp)
   10d74:	02b12223          	sw	a1,36(sp)
   10d78:	02e12823          	sw	a4,48(sp)
   10d7c:	02f12a23          	sw	a5,52(sp)
   10d80:	03012c23          	sw	a6,56(sp)
   10d84:	03112e23          	sw	a7,60(sp)
   10d88:	00832583          	lw	a1,8(t1) # 10140 <frame_dummy+0x1c>
   10d8c:	02410693          	addi	a3,sp,36
   10d90:	00050613          	mv	a2,a0
   10d94:	00030513          	mv	a0,t1
   10d98:	00112e23          	sw	ra,28(sp)
   10d9c:	00d12623          	sw	a3,12(sp)
   10da0:	168000ef          	jal	ra,10f08 <_vfprintf_r>
   10da4:	01c12083          	lw	ra,28(sp)
   10da8:	04010113          	addi	sp,sp,64
   10dac:	00008067          	ret

00010db0 <_putchar_r>:
   10db0:	00852603          	lw	a2,8(a0)
   10db4:	0180006f          	j	10dcc <_putc_r>

00010db8 <putchar>:
   10db8:	1c01a783          	lw	a5,448(gp) # 27a80 <_impure_ptr>
   10dbc:	00050593          	mv	a1,a0
   10dc0:	0087a603          	lw	a2,8(a5)
   10dc4:	00078513          	mv	a0,a5
   10dc8:	0040006f          	j	10dcc <_putc_r>

00010dcc <_putc_r>:
   10dcc:	fe010113          	addi	sp,sp,-32
   10dd0:	01212c23          	sw	s2,24(sp)
   10dd4:	00112e23          	sw	ra,28(sp)
   10dd8:	00050913          	mv	s2,a0
   10ddc:	00050663          	beqz	a0,10de8 <_putc_r+0x1c>
   10de0:	03852783          	lw	a5,56(a0)
   10de4:	04078663          	beqz	a5,10e30 <_putc_r+0x64>
   10de8:	00862783          	lw	a5,8(a2)
   10dec:	fff78793          	addi	a5,a5,-1
   10df0:	00f62423          	sw	a5,8(a2)
   10df4:	0007dc63          	bgez	a5,10e0c <_putc_r+0x40>
   10df8:	01862703          	lw	a4,24(a2)
   10dfc:	04e7c663          	blt	a5,a4,10e48 <_putc_r+0x7c>
   10e00:	0ff5f793          	andi	a5,a1,255
   10e04:	00a00713          	li	a4,10
   10e08:	04e78063          	beq	a5,a4,10e48 <_putc_r+0x7c>
   10e0c:	00062783          	lw	a5,0(a2)
   10e10:	0ff5f513          	andi	a0,a1,255
   10e14:	00178713          	addi	a4,a5,1
   10e18:	00e62023          	sw	a4,0(a2)
   10e1c:	00b78023          	sb	a1,0(a5)
   10e20:	01c12083          	lw	ra,28(sp)
   10e24:	01812903          	lw	s2,24(sp)
   10e28:	02010113          	addi	sp,sp,32
   10e2c:	00008067          	ret
   10e30:	00c12623          	sw	a2,12(sp)
   10e34:	00b12423          	sw	a1,8(sp)
   10e38:	678030ef          	jal	ra,144b0 <__sinit>
   10e3c:	00c12603          	lw	a2,12(sp)
   10e40:	00812583          	lw	a1,8(sp)
   10e44:	fa5ff06f          	j	10de8 <_putc_r+0x1c>
   10e48:	01c12083          	lw	ra,28(sp)
   10e4c:	00090513          	mv	a0,s2
   10e50:	01812903          	lw	s2,24(sp)
   10e54:	02010113          	addi	sp,sp,32
   10e58:	3990206f          	j	139f0 <__swbuf_r>

00010e5c <putc>:
   10e5c:	ff010113          	addi	sp,sp,-16
   10e60:	01212023          	sw	s2,0(sp)
   10e64:	1c01a903          	lw	s2,448(gp) # 27a80 <_impure_ptr>
   10e68:	00812423          	sw	s0,8(sp)
   10e6c:	00912223          	sw	s1,4(sp)
   10e70:	00112623          	sw	ra,12(sp)
   10e74:	00050493          	mv	s1,a0
   10e78:	00058413          	mv	s0,a1
   10e7c:	00090663          	beqz	s2,10e88 <putc+0x2c>
   10e80:	03892783          	lw	a5,56(s2)
   10e84:	04078a63          	beqz	a5,10ed8 <putc+0x7c>
   10e88:	00842783          	lw	a5,8(s0)
   10e8c:	fff78793          	addi	a5,a5,-1
   10e90:	00f42423          	sw	a5,8(s0)
   10e94:	0007dc63          	bgez	a5,10eac <putc+0x50>
   10e98:	01842703          	lw	a4,24(s0)
   10e9c:	04e7c463          	blt	a5,a4,10ee4 <putc+0x88>
   10ea0:	0ff4f793          	andi	a5,s1,255
   10ea4:	00a00713          	li	a4,10
   10ea8:	02e78e63          	beq	a5,a4,10ee4 <putc+0x88>
   10eac:	00042783          	lw	a5,0(s0)
   10eb0:	0ff4f513          	andi	a0,s1,255
   10eb4:	00178713          	addi	a4,a5,1
   10eb8:	00e42023          	sw	a4,0(s0)
   10ebc:	00978023          	sb	s1,0(a5)
   10ec0:	00c12083          	lw	ra,12(sp)
   10ec4:	00812403          	lw	s0,8(sp)
   10ec8:	00412483          	lw	s1,4(sp)
   10ecc:	00012903          	lw	s2,0(sp)
   10ed0:	01010113          	addi	sp,sp,16
   10ed4:	00008067          	ret
   10ed8:	00090513          	mv	a0,s2
   10edc:	5d4030ef          	jal	ra,144b0 <__sinit>
   10ee0:	fa9ff06f          	j	10e88 <putc+0x2c>
   10ee4:	00040613          	mv	a2,s0
   10ee8:	00812403          	lw	s0,8(sp)
   10eec:	00c12083          	lw	ra,12(sp)
   10ef0:	00048593          	mv	a1,s1
   10ef4:	00090513          	mv	a0,s2
   10ef8:	00412483          	lw	s1,4(sp)
   10efc:	00012903          	lw	s2,0(sp)
   10f00:	01010113          	addi	sp,sp,16
   10f04:	2ed0206f          	j	139f0 <__swbuf_r>

00010f08 <_vfprintf_r>:
   10f08:	e1010113          	addi	sp,sp,-496
   10f0c:	1e112623          	sw	ra,492(sp)
   10f10:	1f212023          	sw	s2,480(sp)
   10f14:	1d812423          	sw	s8,456(sp)
   10f18:	1da12023          	sw	s10,448(sp)
   10f1c:	00058c13          	mv	s8,a1
   10f20:	00060913          	mv	s2,a2
   10f24:	00d12a23          	sw	a3,20(sp)
   10f28:	1e812423          	sw	s0,488(sp)
   10f2c:	1e912223          	sw	s1,484(sp)
   10f30:	1d312e23          	sw	s3,476(sp)
   10f34:	1d412c23          	sw	s4,472(sp)
   10f38:	1d512a23          	sw	s5,468(sp)
   10f3c:	1d612823          	sw	s6,464(sp)
   10f40:	1d712623          	sw	s7,460(sp)
   10f44:	1d912223          	sw	s9,452(sp)
   10f48:	1bb12e23          	sw	s11,444(sp)
   10f4c:	00050d13          	mv	s10,a0
   10f50:	7c0060ef          	jal	ra,17710 <_localeconv_r>
   10f54:	00052783          	lw	a5,0(a0)
   10f58:	00078513          	mv	a0,a5
   10f5c:	02f12823          	sw	a5,48(sp)
   10f60:	409080ef          	jal	ra,19b68 <strlen>
   10f64:	02a12623          	sw	a0,44(sp)
   10f68:	0e012823          	sw	zero,240(sp)
   10f6c:	0e012a23          	sw	zero,244(sp)
   10f70:	0e012c23          	sw	zero,248(sp)
   10f74:	0e012e23          	sw	zero,252(sp)
   10f78:	000d0663          	beqz	s10,10f84 <_vfprintf_r+0x7c>
   10f7c:	038d2783          	lw	a5,56(s10)
   10f80:	100788e3          	beqz	a5,11890 <_vfprintf_r+0x988>
   10f84:	00cc1683          	lh	a3,12(s8)
   10f88:	00002637          	lui	a2,0x2
   10f8c:	01069793          	slli	a5,a3,0x10
   10f90:	0107d793          	srli	a5,a5,0x10
   10f94:	00c7f5b3          	and	a1,a5,a2
   10f98:	02059863          	bnez	a1,10fc8 <_vfprintf_r+0xc0>
   10f9c:	064c2583          	lw	a1,100(s8)
   10fa0:	00c6e7b3          	or	a5,a3,a2
   10fa4:	01079793          	slli	a5,a5,0x10
   10fa8:	ffffe6b7          	lui	a3,0xffffe
   10fac:	4107d793          	srai	a5,a5,0x10
   10fb0:	fff68693          	addi	a3,a3,-1 # ffffdfff <__BSS_END__+0xfffd6517>
   10fb4:	00d5f6b3          	and	a3,a1,a3
   10fb8:	00fc1623          	sh	a5,12(s8)
   10fbc:	01079793          	slli	a5,a5,0x10
   10fc0:	06dc2223          	sw	a3,100(s8)
   10fc4:	0107d793          	srli	a5,a5,0x10
   10fc8:	0087f693          	andi	a3,a5,8
   10fcc:	2e068663          	beqz	a3,112b8 <_vfprintf_r+0x3b0>
   10fd0:	010c2683          	lw	a3,16(s8)
   10fd4:	2e068263          	beqz	a3,112b8 <_vfprintf_r+0x3b0>
   10fd8:	01a7f793          	andi	a5,a5,26
   10fdc:	00a00693          	li	a3,10
   10fe0:	2ed78e63          	beq	a5,a3,112dc <_vfprintf_r+0x3d4>
   10fe4:	10c10793          	addi	a5,sp,268
   10fe8:	00078893          	mv	a7,a5
   10fec:	0ef12223          	sw	a5,228(sp)
   10ff0:	000267b7          	lui	a5,0x26
   10ff4:	ce478793          	addi	a5,a5,-796 # 25ce4 <__clzsi2+0x19c>
   10ff8:	00f12c23          	sw	a5,24(sp)
   10ffc:	000267b7          	lui	a5,0x26
   11000:	e6078793          	addi	a5,a5,-416 # 25e60 <zeroes.0>
   11004:	00090b13          	mv	s6,s2
   11008:	00f12423          	sw	a5,8(sp)
   1100c:	000b4783          	lbu	a5,0(s6)
   11010:	0e012623          	sw	zero,236(sp)
   11014:	0e012423          	sw	zero,232(sp)
   11018:	02012023          	sw	zero,32(sp)
   1101c:	02012a23          	sw	zero,52(sp)
   11020:	02012c23          	sw	zero,56(sp)
   11024:	02012e23          	sw	zero,60(sp)
   11028:	04012223          	sw	zero,68(sp)
   1102c:	04012423          	sw	zero,72(sp)
   11030:	00012623          	sw	zero,12(sp)
   11034:	00088d93          	mv	s11,a7
   11038:	22078263          	beqz	a5,1125c <_vfprintf_r+0x354>
   1103c:	000b0413          	mv	s0,s6
   11040:	02500713          	li	a4,37
   11044:	30e78663          	beq	a5,a4,11350 <_vfprintf_r+0x448>
   11048:	00144783          	lbu	a5,1(s0)
   1104c:	00140413          	addi	s0,s0,1
   11050:	fe079ae3          	bnez	a5,11044 <_vfprintf_r+0x13c>
   11054:	416404b3          	sub	s1,s0,s6
   11058:	21640263          	beq	s0,s6,1125c <_vfprintf_r+0x354>
   1105c:	0ec12703          	lw	a4,236(sp)
   11060:	0e812783          	lw	a5,232(sp)
   11064:	016da023          	sw	s6,0(s11)
   11068:	00970733          	add	a4,a4,s1
   1106c:	00178793          	addi	a5,a5,1
   11070:	009da223          	sw	s1,4(s11)
   11074:	0ee12623          	sw	a4,236(sp)
   11078:	0ef12423          	sw	a5,232(sp)
   1107c:	00700713          	li	a4,7
   11080:	008d8d93          	addi	s11,s11,8
   11084:	2cf74e63          	blt	a4,a5,11360 <_vfprintf_r+0x458>
   11088:	00c12703          	lw	a4,12(sp)
   1108c:	00044783          	lbu	a5,0(s0)
   11090:	00970733          	add	a4,a4,s1
   11094:	00e12623          	sw	a4,12(sp)
   11098:	1c078263          	beqz	a5,1125c <_vfprintf_r+0x354>
   1109c:	fff00313          	li	t1,-1
   110a0:	00144483          	lbu	s1,1(s0)
   110a4:	0c0103a3          	sb	zero,199(sp)
   110a8:	00140413          	addi	s0,s0,1
   110ac:	00000993          	li	s3,0
   110b0:	00000a13          	li	s4,0
   110b4:	05a00913          	li	s2,90
   110b8:	00900a93          	li	s5,9
   110bc:	02a00b93          	li	s7,42
   110c0:	00030c93          	mv	s9,t1
   110c4:	00140413          	addi	s0,s0,1
   110c8:	fe048793          	addi	a5,s1,-32
   110cc:	04f96463          	bltu	s2,a5,11114 <_vfprintf_r+0x20c>
   110d0:	01812703          	lw	a4,24(sp)
   110d4:	00279793          	slli	a5,a5,0x2
   110d8:	00e787b3          	add	a5,a5,a4
   110dc:	0007a783          	lw	a5,0(a5)
   110e0:	00078067          	jr	a5
   110e4:	00000993          	li	s3,0
   110e8:	fd048693          	addi	a3,s1,-48
   110ec:	00044483          	lbu	s1,0(s0)
   110f0:	00299793          	slli	a5,s3,0x2
   110f4:	013787b3          	add	a5,a5,s3
   110f8:	00179793          	slli	a5,a5,0x1
   110fc:	00f689b3          	add	s3,a3,a5
   11100:	fd048693          	addi	a3,s1,-48
   11104:	00140413          	addi	s0,s0,1
   11108:	fedaf2e3          	bgeu	s5,a3,110ec <_vfprintf_r+0x1e4>
   1110c:	fe048793          	addi	a5,s1,-32
   11110:	fcf970e3          	bgeu	s2,a5,110d0 <_vfprintf_r+0x1c8>
   11114:	14048463          	beqz	s1,1125c <_vfprintf_r+0x354>
   11118:	14910623          	sb	s1,332(sp)
   1111c:	0c0103a3          	sb	zero,199(sp)
   11120:	00100a93          	li	s5,1
   11124:	00100c93          	li	s9,1
   11128:	14c10b13          	addi	s6,sp,332
   1112c:	00012823          	sw	zero,16(sp)
   11130:	00000313          	li	t1,0
   11134:	02012423          	sw	zero,40(sp)
   11138:	02012223          	sw	zero,36(sp)
   1113c:	00012e23          	sw	zero,28(sp)
   11140:	002a7b93          	andi	s7,s4,2
   11144:	000b8463          	beqz	s7,1114c <_vfprintf_r+0x244>
   11148:	002a8a93          	addi	s5,s5,2
   1114c:	084a7913          	andi	s2,s4,132
   11150:	0ec12783          	lw	a5,236(sp)
   11154:	00091663          	bnez	s2,11160 <_vfprintf_r+0x258>
   11158:	415986b3          	sub	a3,s3,s5
   1115c:	66d046e3          	bgtz	a3,11fc8 <_vfprintf_r+0x10c0>
   11160:	0c714703          	lbu	a4,199(sp)
   11164:	02070a63          	beqz	a4,11198 <_vfprintf_r+0x290>
   11168:	0e812703          	lw	a4,232(sp)
   1116c:	0c710693          	addi	a3,sp,199
   11170:	00dda023          	sw	a3,0(s11)
   11174:	00178793          	addi	a5,a5,1
   11178:	00100693          	li	a3,1
   1117c:	00170713          	addi	a4,a4,1
   11180:	00dda223          	sw	a3,4(s11)
   11184:	0ef12623          	sw	a5,236(sp)
   11188:	0ee12423          	sw	a4,232(sp)
   1118c:	00700693          	li	a3,7
   11190:	008d8d93          	addi	s11,s11,8
   11194:	4ee6c463          	blt	a3,a4,1167c <_vfprintf_r+0x774>
   11198:	020b8a63          	beqz	s7,111cc <_vfprintf_r+0x2c4>
   1119c:	0e812703          	lw	a4,232(sp)
   111a0:	0c810693          	addi	a3,sp,200
   111a4:	00dda023          	sw	a3,0(s11)
   111a8:	00278793          	addi	a5,a5,2
   111ac:	00200693          	li	a3,2
   111b0:	00170713          	addi	a4,a4,1
   111b4:	00dda223          	sw	a3,4(s11)
   111b8:	0ef12623          	sw	a5,236(sp)
   111bc:	0ee12423          	sw	a4,232(sp)
   111c0:	00700693          	li	a3,7
   111c4:	008d8d93          	addi	s11,s11,8
   111c8:	70e6cce3          	blt	a3,a4,120e0 <_vfprintf_r+0x11d8>
   111cc:	08000713          	li	a4,128
   111d0:	42e906e3          	beq	s2,a4,11dfc <_vfprintf_r+0xef4>
   111d4:	41930933          	sub	s2,t1,s9
   111d8:	512046e3          	bgtz	s2,11ee4 <_vfprintf_r+0xfdc>
   111dc:	100a7713          	andi	a4,s4,256
   111e0:	2e0714e3          	bnez	a4,11cc8 <_vfprintf_r+0xdc0>
   111e4:	0e812703          	lw	a4,232(sp)
   111e8:	019787b3          	add	a5,a5,s9
   111ec:	016da023          	sw	s6,0(s11)
   111f0:	00170713          	addi	a4,a4,1
   111f4:	019da223          	sw	s9,4(s11)
   111f8:	0ef12623          	sw	a5,236(sp)
   111fc:	0ee12423          	sw	a4,232(sp)
   11200:	00700693          	li	a3,7
   11204:	5ae6ca63          	blt	a3,a4,117b8 <_vfprintf_r+0x8b0>
   11208:	008d8d93          	addi	s11,s11,8
   1120c:	004a7a13          	andi	s4,s4,4
   11210:	000a0663          	beqz	s4,1121c <_vfprintf_r+0x314>
   11214:	415984b3          	sub	s1,s3,s5
   11218:	5c904063          	bgtz	s1,117d8 <_vfprintf_r+0x8d0>
   1121c:	0159d463          	bge	s3,s5,11224 <_vfprintf_r+0x31c>
   11220:	000a8993          	mv	s3,s5
   11224:	00c12703          	lw	a4,12(sp)
   11228:	01370733          	add	a4,a4,s3
   1122c:	00e12623          	sw	a4,12(sp)
   11230:	560796e3          	bnez	a5,11f9c <_vfprintf_r+0x1094>
   11234:	01012783          	lw	a5,16(sp)
   11238:	0e012423          	sw	zero,232(sp)
   1123c:	00078863          	beqz	a5,1124c <_vfprintf_r+0x344>
   11240:	01012583          	lw	a1,16(sp)
   11244:	000d0513          	mv	a0,s10
   11248:	434030ef          	jal	ra,1467c <_free_r>
   1124c:	10c10d93          	addi	s11,sp,268
   11250:	00040b13          	mv	s6,s0
   11254:	000b4783          	lbu	a5,0(s6)
   11258:	de0792e3          	bnez	a5,1103c <_vfprintf_r+0x134>
   1125c:	0ec12783          	lw	a5,236(sp)
   11260:	00078463          	beqz	a5,11268 <_vfprintf_r+0x360>
   11264:	36d0106f          	j	12dd0 <_vfprintf_r+0x1ec8>
   11268:	00cc5783          	lhu	a5,12(s8)
   1126c:	0407f793          	andi	a5,a5,64
   11270:	00078463          	beqz	a5,11278 <_vfprintf_r+0x370>
   11274:	29c0206f          	j	13510 <_vfprintf_r+0x2608>
   11278:	1ec12083          	lw	ra,492(sp)
   1127c:	1e812403          	lw	s0,488(sp)
   11280:	00c12503          	lw	a0,12(sp)
   11284:	1e412483          	lw	s1,484(sp)
   11288:	1e012903          	lw	s2,480(sp)
   1128c:	1dc12983          	lw	s3,476(sp)
   11290:	1d812a03          	lw	s4,472(sp)
   11294:	1d412a83          	lw	s5,468(sp)
   11298:	1d012b03          	lw	s6,464(sp)
   1129c:	1cc12b83          	lw	s7,460(sp)
   112a0:	1c812c03          	lw	s8,456(sp)
   112a4:	1c412c83          	lw	s9,452(sp)
   112a8:	1c012d03          	lw	s10,448(sp)
   112ac:	1bc12d83          	lw	s11,444(sp)
   112b0:	1f010113          	addi	sp,sp,496
   112b4:	00008067          	ret
   112b8:	000c0593          	mv	a1,s8
   112bc:	000d0513          	mv	a0,s10
   112c0:	0cd020ef          	jal	ra,13b8c <__swsetup_r>
   112c4:	00050463          	beqz	a0,112cc <_vfprintf_r+0x3c4>
   112c8:	2480206f          	j	13510 <_vfprintf_r+0x2608>
   112cc:	00cc5783          	lhu	a5,12(s8)
   112d0:	00a00693          	li	a3,10
   112d4:	01a7f793          	andi	a5,a5,26
   112d8:	d0d796e3          	bne	a5,a3,10fe4 <_vfprintf_r+0xdc>
   112dc:	00ec1783          	lh	a5,14(s8)
   112e0:	d007c2e3          	bltz	a5,10fe4 <_vfprintf_r+0xdc>
   112e4:	01412683          	lw	a3,20(sp)
   112e8:	00090613          	mv	a2,s2
   112ec:	000c0593          	mv	a1,s8
   112f0:	000d0513          	mv	a0,s10
   112f4:	63c020ef          	jal	ra,13930 <__sbprintf>
   112f8:	00a12623          	sw	a0,12(sp)
   112fc:	f7dff06f          	j	11278 <_vfprintf_r+0x370>
   11300:	000d0513          	mv	a0,s10
   11304:	40c060ef          	jal	ra,17710 <_localeconv_r>
   11308:	00452783          	lw	a5,4(a0)
   1130c:	00078513          	mv	a0,a5
   11310:	04f12423          	sw	a5,72(sp)
   11314:	055080ef          	jal	ra,19b68 <strlen>
   11318:	00050793          	mv	a5,a0
   1131c:	000d0513          	mv	a0,s10
   11320:	00078493          	mv	s1,a5
   11324:	04f12223          	sw	a5,68(sp)
   11328:	3e8060ef          	jal	ra,17710 <_localeconv_r>
   1132c:	00852783          	lw	a5,8(a0)
   11330:	02f12e23          	sw	a5,60(sp)
   11334:	00048463          	beqz	s1,1133c <_vfprintf_r+0x434>
   11338:	0c40106f          	j	123fc <_vfprintf_r+0x14f4>
   1133c:	00044483          	lbu	s1,0(s0)
   11340:	d85ff06f          	j	110c4 <_vfprintf_r+0x1bc>
   11344:	00044483          	lbu	s1,0(s0)
   11348:	020a6a13          	ori	s4,s4,32
   1134c:	d79ff06f          	j	110c4 <_vfprintf_r+0x1bc>
   11350:	416404b3          	sub	s1,s0,s6
   11354:	d16414e3          	bne	s0,s6,1105c <_vfprintf_r+0x154>
   11358:	00044783          	lbu	a5,0(s0)
   1135c:	d3dff06f          	j	11098 <_vfprintf_r+0x190>
   11360:	0e410613          	addi	a2,sp,228
   11364:	000c0593          	mv	a1,s8
   11368:	000d0513          	mv	a0,s10
   1136c:	3c80b0ef          	jal	ra,1c734 <__sprint_r>
   11370:	ee051ce3          	bnez	a0,11268 <_vfprintf_r+0x360>
   11374:	10c10d93          	addi	s11,sp,268
   11378:	d11ff06f          	j	11088 <_vfprintf_r+0x180>
   1137c:	008a7793          	andi	a5,s4,8
   11380:	000c8313          	mv	t1,s9
   11384:	00078463          	beqz	a5,1138c <_vfprintf_r+0x484>
   11388:	0c00106f          	j	12448 <_vfprintf_r+0x1540>
   1138c:	01412783          	lw	a5,20(sp)
   11390:	0b010513          	addi	a0,sp,176
   11394:	01912823          	sw	s9,16(sp)
   11398:	00778793          	addi	a5,a5,7
   1139c:	ff87f793          	andi	a5,a5,-8
   113a0:	0007a583          	lw	a1,0(a5)
   113a4:	0047a603          	lw	a2,4(a5)
   113a8:	00878793          	addi	a5,a5,8
   113ac:	00f12a23          	sw	a5,20(sp)
   113b0:	170140ef          	jal	ra,25520 <__extenddftf2>
   113b4:	0b012783          	lw	a5,176(sp)
   113b8:	01012303          	lw	t1,16(sp)
   113bc:	0ef12823          	sw	a5,240(sp)
   113c0:	0b412783          	lw	a5,180(sp)
   113c4:	0ef12a23          	sw	a5,244(sp)
   113c8:	0b812783          	lw	a5,184(sp)
   113cc:	0ef12c23          	sw	a5,248(sp)
   113d0:	0bc12783          	lw	a5,188(sp)
   113d4:	0ef12e23          	sw	a5,252(sp)
   113d8:	0f010513          	addi	a0,sp,240
   113dc:	00612823          	sw	t1,16(sp)
   113e0:	2b0060ef          	jal	ra,17690 <_ldcheck>
   113e4:	0ca12623          	sw	a0,204(sp)
   113e8:	00200793          	li	a5,2
   113ec:	01012303          	lw	t1,16(sp)
   113f0:	00f51463          	bne	a0,a5,113f8 <_vfprintf_r+0x4f0>
   113f4:	4c80106f          	j	128bc <_vfprintf_r+0x19b4>
   113f8:	00100793          	li	a5,1
   113fc:	00f51463          	bne	a0,a5,11404 <_vfprintf_r+0x4fc>
   11400:	6700106f          	j	12a70 <_vfprintf_r+0x1b68>
   11404:	06100793          	li	a5,97
   11408:	00f49463          	bne	s1,a5,11410 <_vfprintf_r+0x508>
   1140c:	1100206f          	j	1351c <_vfprintf_r+0x2614>
   11410:	04100793          	li	a5,65
   11414:	00f49463          	bne	s1,a5,1141c <_vfprintf_r+0x514>
   11418:	2050106f          	j	12e1c <_vfprintf_r+0x1f14>
   1141c:	fdf4f713          	andi	a4,s1,-33
   11420:	fff00793          	li	a5,-1
   11424:	02e12423          	sw	a4,40(sp)
   11428:	00f31463          	bne	t1,a5,11430 <_vfprintf_r+0x528>
   1142c:	2500206f          	j	1367c <_vfprintf_r+0x2774>
   11430:	04700793          	li	a5,71
   11434:	00f71463          	bne	a4,a5,1143c <_vfprintf_r+0x534>
   11438:	24c0206f          	j	13684 <_vfprintf_r+0x277c>
   1143c:	0fc12b83          	lw	s7,252(sp)
   11440:	05412823          	sw	s4,80(sp)
   11444:	0f012e03          	lw	t3,240(sp)
   11448:	0f412e83          	lw	t4,244(sp)
   1144c:	0f812f03          	lw	t5,248(sp)
   11450:	100a6793          	ori	a5,s4,256
   11454:	000bd463          	bgez	s7,1145c <_vfprintf_r+0x554>
   11458:	6250106f          	j	1327c <_vfprintf_r+0x2374>
   1145c:	04012c23          	sw	zero,88(sp)
   11460:	00078a13          	mv	s4,a5
   11464:	00012823          	sw	zero,16(sp)
   11468:	02812703          	lw	a4,40(sp)
   1146c:	04600793          	li	a5,70
   11470:	00f71463          	bne	a4,a5,11478 <_vfprintf_r+0x570>
   11474:	6850106f          	j	132f8 <_vfprintf_r+0x23f0>
   11478:	04500793          	li	a5,69
   1147c:	00f71463          	bne	a4,a5,11484 <_vfprintf_r+0x57c>
   11480:	0b40206f          	j	13534 <_vfprintf_r+0x262c>
   11484:	0b010a93          	addi	s5,sp,176
   11488:	0d010793          	addi	a5,sp,208
   1148c:	0cc10713          	addi	a4,sp,204
   11490:	00030693          	mv	a3,t1
   11494:	0dc10813          	addi	a6,sp,220
   11498:	00200613          	li	a2,2
   1149c:	000a8593          	mv	a1,s5
   114a0:	000d0513          	mv	a0,s10
   114a4:	04612023          	sw	t1,64(sp)
   114a8:	0bc12823          	sw	t3,176(sp)
   114ac:	03c12223          	sw	t3,36(sp)
   114b0:	0bd12a23          	sw	t4,180(sp)
   114b4:	03d12023          	sw	t4,32(sp)
   114b8:	0be12c23          	sw	t5,184(sp)
   114bc:	01e12e23          	sw	t5,28(sp)
   114c0:	0b712e23          	sw	s7,188(sp)
   114c4:	73d040ef          	jal	ra,16400 <_ldtoa_r>
   114c8:	02812703          	lw	a4,40(sp)
   114cc:	04700793          	li	a5,71
   114d0:	01c12f03          	lw	t5,28(sp)
   114d4:	02012e83          	lw	t4,32(sp)
   114d8:	02412e03          	lw	t3,36(sp)
   114dc:	04012303          	lw	t1,64(sp)
   114e0:	00050b13          	mv	s6,a0
   114e4:	00f70463          	beq	a4,a5,114ec <_vfprintf_r+0x5e4>
   114e8:	40c0206f          	j	138f4 <_vfprintf_r+0x29ec>
   114ec:	05012783          	lw	a5,80(sp)
   114f0:	0017f793          	andi	a5,a5,1
   114f4:	00078463          	beqz	a5,114fc <_vfprintf_r+0x5f4>
   114f8:	0a40206f          	j	1359c <_vfprintf_r+0x2694>
   114fc:	0dc12683          	lw	a3,220(sp)
   11500:	416687b3          	sub	a5,a3,s6
   11504:	02f12023          	sw	a5,32(sp)
   11508:	0cc12703          	lw	a4,204(sp)
   1150c:	04700793          	li	a5,71
   11510:	00e12e23          	sw	a4,28(sp)
   11514:	02812703          	lw	a4,40(sp)
   11518:	00f71463          	bne	a4,a5,11520 <_vfprintf_r+0x618>
   1151c:	4cd0106f          	j	131e8 <_vfprintf_r+0x22e0>
   11520:	02812703          	lw	a4,40(sp)
   11524:	04600793          	li	a5,70
   11528:	00f71463          	bne	a4,a5,11530 <_vfprintf_r+0x628>
   1152c:	7790106f          	j	134a4 <_vfprintf_r+0x259c>
   11530:	01c12783          	lw	a5,28(sp)
   11534:	02812603          	lw	a2,40(sp)
   11538:	04100693          	li	a3,65
   1153c:	fff78a93          	addi	s5,a5,-1
   11540:	0d512623          	sw	s5,204(sp)
   11544:	0ff4f793          	andi	a5,s1,255
   11548:	00000713          	li	a4,0
   1154c:	00d61863          	bne	a2,a3,1155c <_vfprintf_r+0x654>
   11550:	00f78793          	addi	a5,a5,15
   11554:	0ff7f793          	andi	a5,a5,255
   11558:	00100713          	li	a4,1
   1155c:	0cf10a23          	sb	a5,212(sp)
   11560:	02b00793          	li	a5,43
   11564:	000ada63          	bgez	s5,11578 <_vfprintf_r+0x670>
   11568:	01c12783          	lw	a5,28(sp)
   1156c:	00100a93          	li	s5,1
   11570:	40fa8ab3          	sub	s5,s5,a5
   11574:	02d00793          	li	a5,45
   11578:	0cf10aa3          	sb	a5,213(sp)
   1157c:	00900793          	li	a5,9
   11580:	0157c463          	blt	a5,s5,11588 <_vfprintf_r+0x680>
   11584:	1100206f          	j	13694 <_vfprintf_r+0x278c>
   11588:	0e310b93          	addi	s7,sp,227
   1158c:	000b8c93          	mv	s9,s7
   11590:	00a00593          	li	a1,10
   11594:	000a8513          	mv	a0,s5
   11598:	580140ef          	jal	ra,25b18 <__modsi3>
   1159c:	03050793          	addi	a5,a0,48
   115a0:	fefc8fa3          	sb	a5,-1(s9)
   115a4:	000a8513          	mv	a0,s5
   115a8:	00a00593          	li	a1,10
   115ac:	4e8140ef          	jal	ra,25a94 <__divsi3>
   115b0:	000a8a13          	mv	s4,s5
   115b4:	06300793          	li	a5,99
   115b8:	000c8913          	mv	s2,s9
   115bc:	00050a93          	mv	s5,a0
   115c0:	fffc8c93          	addi	s9,s9,-1
   115c4:	fd47c6e3          	blt	a5,s4,11590 <_vfprintf_r+0x688>
   115c8:	03050693          	addi	a3,a0,48
   115cc:	0ff6f693          	andi	a3,a3,255
   115d0:	ffe90793          	addi	a5,s2,-2
   115d4:	fedc8fa3          	sb	a3,-1(s9)
   115d8:	0177e463          	bltu	a5,s7,115e0 <_vfprintf_r+0x6d8>
   115dc:	30c0206f          	j	138e8 <_vfprintf_r+0x29e0>
   115e0:	0d610713          	addi	a4,sp,214
   115e4:	0080006f          	j	115ec <_vfprintf_r+0x6e4>
   115e8:	0007c683          	lbu	a3,0(a5)
   115ec:	00d70023          	sb	a3,0(a4)
   115f0:	00178793          	addi	a5,a5,1
   115f4:	00170713          	addi	a4,a4,1
   115f8:	ff7798e3          	bne	a5,s7,115e8 <_vfprintf_r+0x6e0>
   115fc:	0e510793          	addi	a5,sp,229
   11600:	0d610713          	addi	a4,sp,214
   11604:	412787b3          	sub	a5,a5,s2
   11608:	00f707b3          	add	a5,a4,a5
   1160c:	0d410713          	addi	a4,sp,212
   11610:	40e787b3          	sub	a5,a5,a4
   11614:	02f12c23          	sw	a5,56(sp)
   11618:	03812683          	lw	a3,56(sp)
   1161c:	02012703          	lw	a4,32(sp)
   11620:	00100793          	li	a5,1
   11624:	00e68cb3          	add	s9,a3,a4
   11628:	00e7c463          	blt	a5,a4,11630 <_vfprintf_r+0x728>
   1162c:	2480206f          	j	13874 <_vfprintf_r+0x296c>
   11630:	02c12783          	lw	a5,44(sp)
   11634:	00fc8cb3          	add	s9,s9,a5
   11638:	05012783          	lw	a5,80(sp)
   1163c:	fffcca93          	not	s5,s9
   11640:	41fada93          	srai	s5,s5,0x1f
   11644:	bff7fa13          	andi	s4,a5,-1025
   11648:	100a6a13          	ori	s4,s4,256
   1164c:	015cfab3          	and	s5,s9,s5
   11650:	02012423          	sw	zero,40(sp)
   11654:	02012223          	sw	zero,36(sp)
   11658:	00012e23          	sw	zero,28(sp)
   1165c:	05812783          	lw	a5,88(sp)
   11660:	00079463          	bnez	a5,11668 <_vfprintf_r+0x760>
   11664:	3a50106f          	j	13208 <_vfprintf_r+0x2300>
   11668:	02d00793          	li	a5,45
   1166c:	0cf103a3          	sb	a5,199(sp)
   11670:	00000313          	li	t1,0
   11674:	001a8a93          	addi	s5,s5,1
   11678:	ac9ff06f          	j	11140 <_vfprintf_r+0x238>
   1167c:	0e410613          	addi	a2,sp,228
   11680:	000c0593          	mv	a1,s8
   11684:	000d0513          	mv	a0,s10
   11688:	04612023          	sw	t1,64(sp)
   1168c:	0a80b0ef          	jal	ra,1c734 <__sprint_r>
   11690:	120510e3          	bnez	a0,11fb0 <_vfprintf_r+0x10a8>
   11694:	0ec12783          	lw	a5,236(sp)
   11698:	04012303          	lw	t1,64(sp)
   1169c:	10c10d93          	addi	s11,sp,268
   116a0:	af9ff06f          	j	11198 <_vfprintf_r+0x290>
   116a4:	0e812703          	lw	a4,232(sp)
   116a8:	00178c93          	addi	s9,a5,1
   116ac:	02012783          	lw	a5,32(sp)
   116b0:	00100693          	li	a3,1
   116b4:	016da023          	sw	s6,0(s11)
   116b8:	00170493          	addi	s1,a4,1
   116bc:	008d8913          	addi	s2,s11,8
   116c0:	3cf6d4e3          	bge	a3,a5,12288 <_vfprintf_r+0x1380>
   116c4:	00100793          	li	a5,1
   116c8:	00fda223          	sw	a5,4(s11)
   116cc:	0f912623          	sw	s9,236(sp)
   116d0:	0e912423          	sw	s1,232(sp)
   116d4:	00700793          	li	a5,7
   116d8:	7a97c0e3          	blt	a5,s1,12678 <_vfprintf_r+0x1770>
   116dc:	02c12783          	lw	a5,44(sp)
   116e0:	03012703          	lw	a4,48(sp)
   116e4:	00148493          	addi	s1,s1,1
   116e8:	00fc8cb3          	add	s9,s9,a5
   116ec:	00f92223          	sw	a5,4(s2)
   116f0:	00e92023          	sw	a4,0(s2)
   116f4:	0f912623          	sw	s9,236(sp)
   116f8:	0e912423          	sw	s1,232(sp)
   116fc:	00700793          	li	a5,7
   11700:	00890913          	addi	s2,s2,8
   11704:	7897cce3          	blt	a5,s1,1269c <_vfprintf_r+0x1794>
   11708:	0f012783          	lw	a5,240(sp)
   1170c:	00148693          	addi	a3,s1,1
   11710:	0a010593          	addi	a1,sp,160
   11714:	0af12823          	sw	a5,176(sp)
   11718:	0f412783          	lw	a5,244(sp)
   1171c:	0b010513          	addi	a0,sp,176
   11720:	00d12e23          	sw	a3,28(sp)
   11724:	0af12a23          	sw	a5,180(sp)
   11728:	0f812783          	lw	a5,248(sp)
   1172c:	0a012023          	sw	zero,160(sp)
   11730:	0a012223          	sw	zero,164(sp)
   11734:	0af12c23          	sw	a5,184(sp)
   11738:	0fc12783          	lw	a5,252(sp)
   1173c:	0a012423          	sw	zero,168(sp)
   11740:	0a012623          	sw	zero,172(sp)
   11744:	0af12e23          	sw	a5,188(sp)
   11748:	72d100ef          	jal	ra,22674 <__eqtf2>
   1174c:	01c12683          	lw	a3,28(sp)
   11750:	02012783          	lw	a5,32(sp)
   11754:	00890d93          	addi	s11,s2,8
   11758:	00068713          	mv	a4,a3
   1175c:	fff78793          	addi	a5,a5,-1
   11760:	340508e3          	beqz	a0,122b0 <_vfprintf_r+0x13a8>
   11764:	00fc8cb3          	add	s9,s9,a5
   11768:	001b0813          	addi	a6,s6,1
   1176c:	00f92223          	sw	a5,4(s2)
   11770:	01092023          	sw	a6,0(s2)
   11774:	0f912623          	sw	s9,236(sp)
   11778:	0ed12423          	sw	a3,232(sp)
   1177c:	00700793          	li	a5,7
   11780:	54d7cee3          	blt	a5,a3,124dc <_vfprintf_r+0x15d4>
   11784:	01090793          	addi	a5,s2,16
   11788:	00248713          	addi	a4,s1,2
   1178c:	000d8913          	mv	s2,s11
   11790:	00078d93          	mv	s11,a5
   11794:	03812603          	lw	a2,56(sp)
   11798:	0d410693          	addi	a3,sp,212
   1179c:	00d92023          	sw	a3,0(s2)
   117a0:	019607b3          	add	a5,a2,s9
   117a4:	00c92223          	sw	a2,4(s2)
   117a8:	0ef12623          	sw	a5,236(sp)
   117ac:	0ee12423          	sw	a4,232(sp)
   117b0:	00700693          	li	a3,7
   117b4:	a4e6dce3          	bge	a3,a4,1120c <_vfprintf_r+0x304>
   117b8:	0e410613          	addi	a2,sp,228
   117bc:	000c0593          	mv	a1,s8
   117c0:	000d0513          	mv	a0,s10
   117c4:	7710a0ef          	jal	ra,1c734 <__sprint_r>
   117c8:	7e051463          	bnez	a0,11fb0 <_vfprintf_r+0x10a8>
   117cc:	0ec12783          	lw	a5,236(sp)
   117d0:	10c10d93          	addi	s11,sp,268
   117d4:	a39ff06f          	j	1120c <_vfprintf_r+0x304>
   117d8:	01000693          	li	a3,16
   117dc:	0e812703          	lw	a4,232(sp)
   117e0:	0096c463          	blt	a3,s1,117e8 <_vfprintf_r+0x8e0>
   117e4:	5210106f          	j	13504 <_vfprintf_r+0x25fc>
   117e8:	000266b7          	lui	a3,0x26
   117ec:	e5068e93          	addi	t4,a3,-432 # 25e50 <blanks.1>
   117f0:	01000913          	li	s2,16
   117f4:	00700a13          	li	s4,7
   117f8:	000e8b13          	mv	s6,t4
   117fc:	00c0006f          	j	11808 <_vfprintf_r+0x900>
   11800:	ff048493          	addi	s1,s1,-16
   11804:	04995663          	bge	s2,s1,11850 <_vfprintf_r+0x948>
   11808:	01078793          	addi	a5,a5,16
   1180c:	00170713          	addi	a4,a4,1
   11810:	016da023          	sw	s6,0(s11)
   11814:	012da223          	sw	s2,4(s11)
   11818:	0ef12623          	sw	a5,236(sp)
   1181c:	0ee12423          	sw	a4,232(sp)
   11820:	008d8d93          	addi	s11,s11,8
   11824:	fcea5ee3          	bge	s4,a4,11800 <_vfprintf_r+0x8f8>
   11828:	0e410613          	addi	a2,sp,228
   1182c:	000c0593          	mv	a1,s8
   11830:	000d0513          	mv	a0,s10
   11834:	7010a0ef          	jal	ra,1c734 <__sprint_r>
   11838:	76051c63          	bnez	a0,11fb0 <_vfprintf_r+0x10a8>
   1183c:	ff048493          	addi	s1,s1,-16
   11840:	0ec12783          	lw	a5,236(sp)
   11844:	0e812703          	lw	a4,232(sp)
   11848:	10c10d93          	addi	s11,sp,268
   1184c:	fa994ee3          	blt	s2,s1,11808 <_vfprintf_r+0x900>
   11850:	000b0e93          	mv	t4,s6
   11854:	009787b3          	add	a5,a5,s1
   11858:	00170713          	addi	a4,a4,1
   1185c:	01dda023          	sw	t4,0(s11)
   11860:	009da223          	sw	s1,4(s11)
   11864:	0ef12623          	sw	a5,236(sp)
   11868:	0ee12423          	sw	a4,232(sp)
   1186c:	00700693          	li	a3,7
   11870:	9ae6d6e3          	bge	a3,a4,1121c <_vfprintf_r+0x314>
   11874:	0e410613          	addi	a2,sp,228
   11878:	000c0593          	mv	a1,s8
   1187c:	000d0513          	mv	a0,s10
   11880:	6b50a0ef          	jal	ra,1c734 <__sprint_r>
   11884:	72051663          	bnez	a0,11fb0 <_vfprintf_r+0x10a8>
   11888:	0ec12783          	lw	a5,236(sp)
   1188c:	991ff06f          	j	1121c <_vfprintf_r+0x314>
   11890:	000d0513          	mv	a0,s10
   11894:	41d020ef          	jal	ra,144b0 <__sinit>
   11898:	eecff06f          	j	10f84 <_vfprintf_r+0x7c>
   1189c:	01412703          	lw	a4,20(sp)
   118a0:	0c0103a3          	sb	zero,199(sp)
   118a4:	00100a93          	li	s5,1
   118a8:	00072783          	lw	a5,0(a4)
   118ac:	00470713          	addi	a4,a4,4
   118b0:	00e12a23          	sw	a4,20(sp)
   118b4:	14f10623          	sb	a5,332(sp)
   118b8:	00100c93          	li	s9,1
   118bc:	14c10b13          	addi	s6,sp,332
   118c0:	86dff06f          	j	1112c <_vfprintf_r+0x224>
   118c4:	01412783          	lw	a5,20(sp)
   118c8:	0c0103a3          	sb	zero,199(sp)
   118cc:	0007ab03          	lw	s6,0(a5)
   118d0:	00478913          	addi	s2,a5,4
   118d4:	4e0b0ee3          	beqz	s6,125d0 <_vfprintf_r+0x16c8>
   118d8:	fff00793          	li	a5,-1
   118dc:	00fc9463          	bne	s9,a5,118e4 <_vfprintf_r+0x9dc>
   118e0:	06c0106f          	j	1294c <_vfprintf_r+0x1a44>
   118e4:	000c8613          	mv	a2,s9
   118e8:	00000593          	li	a1,0
   118ec:	000b0513          	mv	a0,s6
   118f0:	01912a23          	sw	s9,20(sp)
   118f4:	195060ef          	jal	ra,18288 <memchr>
   118f8:	00a12823          	sw	a0,16(sp)
   118fc:	01412303          	lw	t1,20(sp)
   11900:	00051463          	bnez	a0,11908 <_vfprintf_r+0xa00>
   11904:	3350106f          	j	13438 <_vfprintf_r+0x2530>
   11908:	01012783          	lw	a5,16(sp)
   1190c:	41678cb3          	sub	s9,a5,s6
   11910:	0c714783          	lbu	a5,199(sp)
   11914:	fffcca93          	not	s5,s9
   11918:	41fada93          	srai	s5,s5,0x1f
   1191c:	01212a23          	sw	s2,20(sp)
   11920:	00012823          	sw	zero,16(sp)
   11924:	02012423          	sw	zero,40(sp)
   11928:	02012223          	sw	zero,36(sp)
   1192c:	00012e23          	sw	zero,28(sp)
   11930:	015cfab3          	and	s5,s9,s5
   11934:	00000313          	li	t1,0
   11938:	800784e3          	beqz	a5,11140 <_vfprintf_r+0x238>
   1193c:	001a8a93          	addi	s5,s5,1
   11940:	801ff06f          	j	11140 <_vfprintf_r+0x238>
   11944:	00044483          	lbu	s1,0(s0)
   11948:	06800793          	li	a5,104
   1194c:	44f484e3          	beq	s1,a5,12594 <_vfprintf_r+0x168c>
   11950:	040a6a13          	ori	s4,s4,64
   11954:	f70ff06f          	j	110c4 <_vfprintf_r+0x1bc>
   11958:	01412683          	lw	a3,20(sp)
   1195c:	020a7793          	andi	a5,s4,32
   11960:	0006a703          	lw	a4,0(a3)
   11964:	00468693          	addi	a3,a3,4
   11968:	00d12a23          	sw	a3,20(sp)
   1196c:	2a079ae3          	bnez	a5,12420 <_vfprintf_r+0x1518>
   11970:	010a7793          	andi	a5,s4,16
   11974:	00078463          	beqz	a5,1197c <_vfprintf_r+0xa74>
   11978:	7c50006f          	j	1293c <_vfprintf_r+0x1a34>
   1197c:	040a7793          	andi	a5,s4,64
   11980:	00078463          	beqz	a5,11988 <_vfprintf_r+0xa80>
   11984:	3e40106f          	j	12d68 <_vfprintf_r+0x1e60>
   11988:	200a7a13          	andi	s4,s4,512
   1198c:	000a1463          	bnez	s4,11994 <_vfprintf_r+0xa8c>
   11990:	7ad0006f          	j	1293c <_vfprintf_r+0x1a34>
   11994:	00c12783          	lw	a5,12(sp)
   11998:	00040b13          	mv	s6,s0
   1199c:	00f70023          	sb	a5,0(a4)
   119a0:	8b5ff06f          	j	11254 <_vfprintf_r+0x34c>
   119a4:	00044483          	lbu	s1,0(s0)
   119a8:	06c00793          	li	a5,108
   119ac:	3ef48ce3          	beq	s1,a5,125a4 <_vfprintf_r+0x169c>
   119b0:	010a6a13          	ori	s4,s4,16
   119b4:	f10ff06f          	j	110c4 <_vfprintf_r+0x1bc>
   119b8:	01412703          	lw	a4,20(sp)
   119bc:	ffff87b7          	lui	a5,0xffff8
   119c0:	8307c793          	xori	a5,a5,-2000
   119c4:	0cf11423          	sh	a5,200(sp)
   119c8:	00470793          	addi	a5,a4,4
   119cc:	000c8313          	mv	t1,s9
   119d0:	00f12a23          	sw	a5,20(sp)
   119d4:	00072c83          	lw	s9,0(a4)
   119d8:	000267b7          	lui	a5,0x26
   119dc:	cb078793          	addi	a5,a5,-848 # 25cb0 <__clzsi2+0x168>
   119e0:	02f12a23          	sw	a5,52(sp)
   119e4:	00000913          	li	s2,0
   119e8:	002a6b93          	ori	s7,s4,2
   119ec:	00200793          	li	a5,2
   119f0:	07800493          	li	s1,120
   119f4:	0c0103a3          	sb	zero,199(sp)
   119f8:	fff00693          	li	a3,-1
   119fc:	20d30263          	beq	t1,a3,11c00 <_vfprintf_r+0xcf8>
   11a00:	012ce6b3          	or	a3,s9,s2
   11a04:	f7fbfa13          	andi	s4,s7,-129
   11a08:	1e069a63          	bnez	a3,11bfc <_vfprintf_r+0xcf4>
   11a0c:	26031063          	bnez	t1,11c6c <_vfprintf_r+0xd64>
   11a10:	10079863          	bnez	a5,11b20 <_vfprintf_r+0xc18>
   11a14:	001bfc93          	andi	s9,s7,1
   11a18:	1b010b13          	addi	s6,sp,432
   11a1c:	1c0c98e3          	bnez	s9,123ec <_vfprintf_r+0x14e4>
   11a20:	0c714783          	lbu	a5,199(sp)
   11a24:	00030a93          	mv	s5,t1
   11a28:	01935463          	bge	t1,s9,11a30 <_vfprintf_r+0xb28>
   11a2c:	000c8a93          	mv	s5,s9
   11a30:	00012823          	sw	zero,16(sp)
   11a34:	02012423          	sw	zero,40(sp)
   11a38:	02012223          	sw	zero,36(sp)
   11a3c:	00012e23          	sw	zero,28(sp)
   11a40:	ee079ee3          	bnez	a5,1193c <_vfprintf_r+0xa34>
   11a44:	efcff06f          	j	11140 <_vfprintf_r+0x238>
   11a48:	000c8313          	mv	t1,s9
   11a4c:	010a6a13          	ori	s4,s4,16
   11a50:	020a7793          	andi	a5,s4,32
   11a54:	0c0788e3          	beqz	a5,12324 <_vfprintf_r+0x141c>
   11a58:	01412783          	lw	a5,20(sp)
   11a5c:	00778b13          	addi	s6,a5,7
   11a60:	ff8b7b13          	andi	s6,s6,-8
   11a64:	000b2c83          	lw	s9,0(s6)
   11a68:	004b2903          	lw	s2,4(s6)
   11a6c:	008b0793          	addi	a5,s6,8
   11a70:	00f12a23          	sw	a5,20(sp)
   11a74:	bffa7b93          	andi	s7,s4,-1025
   11a78:	00000793          	li	a5,0
   11a7c:	f79ff06f          	j	119f4 <_vfprintf_r+0xaec>
   11a80:	000c8313          	mv	t1,s9
   11a84:	010a6b93          	ori	s7,s4,16
   11a88:	020bf793          	andi	a5,s7,32
   11a8c:	10078ce3          	beqz	a5,123a4 <_vfprintf_r+0x149c>
   11a90:	01412783          	lw	a5,20(sp)
   11a94:	00778b13          	addi	s6,a5,7
   11a98:	ff8b7b13          	andi	s6,s6,-8
   11a9c:	008b0793          	addi	a5,s6,8
   11aa0:	00f12a23          	sw	a5,20(sp)
   11aa4:	000b2c83          	lw	s9,0(s6)
   11aa8:	004b2903          	lw	s2,4(s6)
   11aac:	00100793          	li	a5,1
   11ab0:	f45ff06f          	j	119f4 <_vfprintf_r+0xaec>
   11ab4:	00044483          	lbu	s1,0(s0)
   11ab8:	080a6a13          	ori	s4,s4,128
   11abc:	e08ff06f          	j	110c4 <_vfprintf_r+0x1bc>
   11ac0:	00044483          	lbu	s1,0(s0)
   11ac4:	008a6a13          	ori	s4,s4,8
   11ac8:	dfcff06f          	j	110c4 <_vfprintf_r+0x1bc>
   11acc:	000c8313          	mv	t1,s9
   11ad0:	010a6a13          	ori	s4,s4,16
   11ad4:	020a7793          	andi	a5,s4,32
   11ad8:	06078ce3          	beqz	a5,12350 <_vfprintf_r+0x1448>
   11adc:	01412783          	lw	a5,20(sp)
   11ae0:	00778b13          	addi	s6,a5,7
   11ae4:	ff8b7b13          	andi	s6,s6,-8
   11ae8:	004b2783          	lw	a5,4(s6)
   11aec:	000b2c83          	lw	s9,0(s6)
   11af0:	008b0713          	addi	a4,s6,8
   11af4:	00e12a23          	sw	a4,20(sp)
   11af8:	00078913          	mv	s2,a5
   11afc:	0807c2e3          	bltz	a5,12380 <_vfprintf_r+0x1478>
   11b00:	fff00793          	li	a5,-1
   11b04:	000a0b93          	mv	s7,s4
   11b08:	02f30463          	beq	t1,a5,11b30 <_vfprintf_r+0xc28>
   11b0c:	012ce7b3          	or	a5,s9,s2
   11b10:	f7fa7b93          	andi	s7,s4,-129
   11b14:	00079e63          	bnez	a5,11b30 <_vfprintf_r+0xc28>
   11b18:	02031263          	bnez	t1,11b3c <_vfprintf_r+0xc34>
   11b1c:	000b8a13          	mv	s4,s7
   11b20:	00000313          	li	t1,0
   11b24:	00000c93          	li	s9,0
   11b28:	1b010b13          	addi	s6,sp,432
   11b2c:	ef5ff06f          	j	11a20 <_vfprintf_r+0xb18>
   11b30:	380918e3          	bnez	s2,126c0 <_vfprintf_r+0x17b8>
   11b34:	00900793          	li	a5,9
   11b38:	3997e4e3          	bltu	a5,s9,126c0 <_vfprintf_r+0x17b8>
   11b3c:	030c8c93          	addi	s9,s9,48
   11b40:	1b9107a3          	sb	s9,431(sp)
   11b44:	000b8a13          	mv	s4,s7
   11b48:	00100c93          	li	s9,1
   11b4c:	1af10b13          	addi	s6,sp,431
   11b50:	ed1ff06f          	j	11a20 <_vfprintf_r+0xb18>
   11b54:	01412783          	lw	a5,20(sp)
   11b58:	00044483          	lbu	s1,0(s0)
   11b5c:	0007a983          	lw	s3,0(a5)
   11b60:	00478793          	addi	a5,a5,4
   11b64:	00f12a23          	sw	a5,20(sp)
   11b68:	d409de63          	bgez	s3,110c4 <_vfprintf_r+0x1bc>
   11b6c:	413009b3          	neg	s3,s3
   11b70:	004a6a13          	ori	s4,s4,4
   11b74:	d50ff06f          	j	110c4 <_vfprintf_r+0x1bc>
   11b78:	00044483          	lbu	s1,0(s0)
   11b7c:	001a6a13          	ori	s4,s4,1
   11b80:	d44ff06f          	j	110c4 <_vfprintf_r+0x1bc>
   11b84:	0c714783          	lbu	a5,199(sp)
   11b88:	00044483          	lbu	s1,0(s0)
   11b8c:	d2079c63          	bnez	a5,110c4 <_vfprintf_r+0x1bc>
   11b90:	02000793          	li	a5,32
   11b94:	0cf103a3          	sb	a5,199(sp)
   11b98:	d2cff06f          	j	110c4 <_vfprintf_r+0x1bc>
   11b9c:	00044483          	lbu	s1,0(s0)
   11ba0:	004a6a13          	ori	s4,s4,4
   11ba4:	d20ff06f          	j	110c4 <_vfprintf_r+0x1bc>
   11ba8:	02b00793          	li	a5,43
   11bac:	00044483          	lbu	s1,0(s0)
   11bb0:	0cf103a3          	sb	a5,199(sp)
   11bb4:	d10ff06f          	j	110c4 <_vfprintf_r+0x1bc>
   11bb8:	00044483          	lbu	s1,0(s0)
   11bbc:	00140713          	addi	a4,s0,1
   11bc0:	01749463          	bne	s1,s7,11bc8 <_vfprintf_r+0xcc0>
   11bc4:	5010106f          	j	138c4 <_vfprintf_r+0x29bc>
   11bc8:	fd048693          	addi	a3,s1,-48
   11bcc:	00070413          	mv	s0,a4
   11bd0:	00000c93          	li	s9,0
   11bd4:	cedaea63          	bltu	s5,a3,110c8 <_vfprintf_r+0x1c0>
   11bd8:	00044483          	lbu	s1,0(s0)
   11bdc:	002c9793          	slli	a5,s9,0x2
   11be0:	019787b3          	add	a5,a5,s9
   11be4:	00179793          	slli	a5,a5,0x1
   11be8:	00d78cb3          	add	s9,a5,a3
   11bec:	fd048693          	addi	a3,s1,-48
   11bf0:	00140413          	addi	s0,s0,1
   11bf4:	fedaf2e3          	bgeu	s5,a3,11bd8 <_vfprintf_r+0xcd0>
   11bf8:	cd0ff06f          	j	110c8 <_vfprintf_r+0x1c0>
   11bfc:	000a0b93          	mv	s7,s4
   11c00:	00100693          	li	a3,1
   11c04:	f2d786e3          	beq	a5,a3,11b30 <_vfprintf_r+0xc28>
   11c08:	00200693          	li	a3,2
   11c0c:	06d78c63          	beq	a5,a3,11c84 <_vfprintf_r+0xd7c>
   11c10:	1b010b13          	addi	s6,sp,432
   11c14:	01d91713          	slli	a4,s2,0x1d
   11c18:	007cf793          	andi	a5,s9,7
   11c1c:	003cdc93          	srli	s9,s9,0x3
   11c20:	03078793          	addi	a5,a5,48
   11c24:	01976cb3          	or	s9,a4,s9
   11c28:	00395913          	srli	s2,s2,0x3
   11c2c:	fefb0fa3          	sb	a5,-1(s6)
   11c30:	012ce733          	or	a4,s9,s2
   11c34:	000b0613          	mv	a2,s6
   11c38:	fffb0b13          	addi	s6,s6,-1
   11c3c:	fc071ce3          	bnez	a4,11c14 <_vfprintf_r+0xd0c>
   11c40:	001bf693          	andi	a3,s7,1
   11c44:	06068a63          	beqz	a3,11cb8 <_vfprintf_r+0xdb0>
   11c48:	03000693          	li	a3,48
   11c4c:	06d78663          	beq	a5,a3,11cb8 <_vfprintf_r+0xdb0>
   11c50:	ffe60613          	addi	a2,a2,-2 # 1ffe <register_fini-0xe076>
   11c54:	1b010793          	addi	a5,sp,432
   11c58:	fedb0fa3          	sb	a3,-1(s6)
   11c5c:	40c78cb3          	sub	s9,a5,a2
   11c60:	000b8a13          	mv	s4,s7
   11c64:	00060b13          	mv	s6,a2
   11c68:	db9ff06f          	j	11a20 <_vfprintf_r+0xb18>
   11c6c:	00100713          	li	a4,1
   11c70:	00e79463          	bne	a5,a4,11c78 <_vfprintf_r+0xd70>
   11c74:	0b90106f          	j	1352c <_vfprintf_r+0x2624>
   11c78:	00200713          	li	a4,2
   11c7c:	000a0b93          	mv	s7,s4
   11c80:	f8e798e3          	bne	a5,a4,11c10 <_vfprintf_r+0xd08>
   11c84:	03412683          	lw	a3,52(sp)
   11c88:	1b010b13          	addi	s6,sp,432
   11c8c:	00fcf793          	andi	a5,s9,15
   11c90:	00f687b3          	add	a5,a3,a5
   11c94:	0007c703          	lbu	a4,0(a5)
   11c98:	004cdc93          	srli	s9,s9,0x4
   11c9c:	01c91793          	slli	a5,s2,0x1c
   11ca0:	0197ecb3          	or	s9,a5,s9
   11ca4:	00495913          	srli	s2,s2,0x4
   11ca8:	feeb0fa3          	sb	a4,-1(s6)
   11cac:	012ce7b3          	or	a5,s9,s2
   11cb0:	fffb0b13          	addi	s6,s6,-1
   11cb4:	fc079ce3          	bnez	a5,11c8c <_vfprintf_r+0xd84>
   11cb8:	1b010793          	addi	a5,sp,432
   11cbc:	41678cb3          	sub	s9,a5,s6
   11cc0:	000b8a13          	mv	s4,s7
   11cc4:	d5dff06f          	j	11a20 <_vfprintf_r+0xb18>
   11cc8:	06500713          	li	a4,101
   11ccc:	9c975ce3          	bge	a4,s1,116a4 <_vfprintf_r+0x79c>
   11cd0:	0f012703          	lw	a4,240(sp)
   11cd4:	0a010593          	addi	a1,sp,160
   11cd8:	0b010513          	addi	a0,sp,176
   11cdc:	0ae12823          	sw	a4,176(sp)
   11ce0:	0f412703          	lw	a4,244(sp)
   11ce4:	04f12023          	sw	a5,64(sp)
   11ce8:	0a012023          	sw	zero,160(sp)
   11cec:	0ae12a23          	sw	a4,180(sp)
   11cf0:	0f812703          	lw	a4,248(sp)
   11cf4:	0a012223          	sw	zero,164(sp)
   11cf8:	0a012423          	sw	zero,168(sp)
   11cfc:	0ae12c23          	sw	a4,184(sp)
   11d00:	0fc12703          	lw	a4,252(sp)
   11d04:	0a012623          	sw	zero,172(sp)
   11d08:	0ae12e23          	sw	a4,188(sp)
   11d0c:	169100ef          	jal	ra,22674 <__eqtf2>
   11d10:	04012783          	lw	a5,64(sp)
   11d14:	3e051a63          	bnez	a0,12108 <_vfprintf_r+0x1200>
   11d18:	0e812703          	lw	a4,232(sp)
   11d1c:	000266b7          	lui	a3,0x26
   11d20:	ce068693          	addi	a3,a3,-800 # 25ce0 <__clzsi2+0x198>
   11d24:	00dda023          	sw	a3,0(s11)
   11d28:	00178793          	addi	a5,a5,1
   11d2c:	00100693          	li	a3,1
   11d30:	00170713          	addi	a4,a4,1
   11d34:	00dda223          	sw	a3,4(s11)
   11d38:	0ef12623          	sw	a5,236(sp)
   11d3c:	0ee12423          	sw	a4,232(sp)
   11d40:	00700693          	li	a3,7
   11d44:	008d8d93          	addi	s11,s11,8
   11d48:	30e6cee3          	blt	a3,a4,12864 <_vfprintf_r+0x195c>
   11d4c:	0cc12703          	lw	a4,204(sp)
   11d50:	02012683          	lw	a3,32(sp)
   11d54:	68d75063          	bge	a4,a3,123d4 <_vfprintf_r+0x14cc>
   11d58:	03012703          	lw	a4,48(sp)
   11d5c:	02c12683          	lw	a3,44(sp)
   11d60:	008d8d93          	addi	s11,s11,8
   11d64:	feedac23          	sw	a4,-8(s11)
   11d68:	0e812703          	lw	a4,232(sp)
   11d6c:	00d787b3          	add	a5,a5,a3
   11d70:	feddae23          	sw	a3,-4(s11)
   11d74:	00170713          	addi	a4,a4,1
   11d78:	0ef12623          	sw	a5,236(sp)
   11d7c:	0ee12423          	sw	a4,232(sp)
   11d80:	00700693          	li	a3,7
   11d84:	7ee6c863          	blt	a3,a4,12574 <_vfprintf_r+0x166c>
   11d88:	02012703          	lw	a4,32(sp)
   11d8c:	fff70493          	addi	s1,a4,-1
   11d90:	c6905e63          	blez	s1,1120c <_vfprintf_r+0x304>
   11d94:	01000693          	li	a3,16
   11d98:	0e812703          	lw	a4,232(sp)
   11d9c:	2e96d4e3          	bge	a3,s1,12884 <_vfprintf_r+0x197c>
   11da0:	01000913          	li	s2,16
   11da4:	00700c93          	li	s9,7
   11da8:	00c0006f          	j	11db4 <_vfprintf_r+0xeac>
   11dac:	ff048493          	addi	s1,s1,-16
   11db0:	2c995ae3          	bge	s2,s1,12884 <_vfprintf_r+0x197c>
   11db4:	00812683          	lw	a3,8(sp)
   11db8:	01078793          	addi	a5,a5,16
   11dbc:	00170713          	addi	a4,a4,1
   11dc0:	00dda023          	sw	a3,0(s11)
   11dc4:	012da223          	sw	s2,4(s11)
   11dc8:	0ef12623          	sw	a5,236(sp)
   11dcc:	0ee12423          	sw	a4,232(sp)
   11dd0:	008d8d93          	addi	s11,s11,8
   11dd4:	fcecdce3          	bge	s9,a4,11dac <_vfprintf_r+0xea4>
   11dd8:	0e410613          	addi	a2,sp,228
   11ddc:	000c0593          	mv	a1,s8
   11de0:	000d0513          	mv	a0,s10
   11de4:	1510a0ef          	jal	ra,1c734 <__sprint_r>
   11de8:	1c051463          	bnez	a0,11fb0 <_vfprintf_r+0x10a8>
   11dec:	0ec12783          	lw	a5,236(sp)
   11df0:	0e812703          	lw	a4,232(sp)
   11df4:	10c10d93          	addi	s11,sp,268
   11df8:	fb5ff06f          	j	11dac <_vfprintf_r+0xea4>
   11dfc:	41598933          	sub	s2,s3,s5
   11e00:	bd205a63          	blez	s2,111d4 <_vfprintf_r+0x2cc>
   11e04:	01000613          	li	a2,16
   11e08:	0e812703          	lw	a4,232(sp)
   11e0c:	09265463          	bge	a2,s2,11e94 <_vfprintf_r+0xf8c>
   11e10:	04812023          	sw	s0,64(sp)
   11e14:	01000e13          	li	t3,16
   11e18:	000c0413          	mv	s0,s8
   11e1c:	00700b93          	li	s7,7
   11e20:	00090c13          	mv	s8,s2
   11e24:	00030913          	mv	s2,t1
   11e28:	00c0006f          	j	11e34 <_vfprintf_r+0xf2c>
   11e2c:	ff0c0c13          	addi	s8,s8,-16
   11e30:	058e5a63          	bge	t3,s8,11e84 <_vfprintf_r+0xf7c>
   11e34:	00812683          	lw	a3,8(sp)
   11e38:	01078793          	addi	a5,a5,16
   11e3c:	00170713          	addi	a4,a4,1
   11e40:	00dda023          	sw	a3,0(s11)
   11e44:	01cda223          	sw	t3,4(s11)
   11e48:	0ef12623          	sw	a5,236(sp)
   11e4c:	0ee12423          	sw	a4,232(sp)
   11e50:	008d8d93          	addi	s11,s11,8
   11e54:	fcebdce3          	bge	s7,a4,11e2c <_vfprintf_r+0xf24>
   11e58:	0e410613          	addi	a2,sp,228
   11e5c:	00040593          	mv	a1,s0
   11e60:	000d0513          	mv	a0,s10
   11e64:	0d10a0ef          	jal	ra,1c734 <__sprint_r>
   11e68:	240514e3          	bnez	a0,128b0 <_vfprintf_r+0x19a8>
   11e6c:	01000e13          	li	t3,16
   11e70:	ff0c0c13          	addi	s8,s8,-16
   11e74:	0ec12783          	lw	a5,236(sp)
   11e78:	0e812703          	lw	a4,232(sp)
   11e7c:	10c10d93          	addi	s11,sp,268
   11e80:	fb8e4ae3          	blt	t3,s8,11e34 <_vfprintf_r+0xf2c>
   11e84:	00090313          	mv	t1,s2
   11e88:	000c0913          	mv	s2,s8
   11e8c:	00040c13          	mv	s8,s0
   11e90:	04012403          	lw	s0,64(sp)
   11e94:	00812683          	lw	a3,8(sp)
   11e98:	012787b3          	add	a5,a5,s2
   11e9c:	00170713          	addi	a4,a4,1
   11ea0:	00dda023          	sw	a3,0(s11)
   11ea4:	012da223          	sw	s2,4(s11)
   11ea8:	0ef12623          	sw	a5,236(sp)
   11eac:	0ee12423          	sw	a4,232(sp)
   11eb0:	00700693          	li	a3,7
   11eb4:	008d8d93          	addi	s11,s11,8
   11eb8:	b0e6de63          	bge	a3,a4,111d4 <_vfprintf_r+0x2cc>
   11ebc:	0e410613          	addi	a2,sp,228
   11ec0:	000c0593          	mv	a1,s8
   11ec4:	000d0513          	mv	a0,s10
   11ec8:	04612023          	sw	t1,64(sp)
   11ecc:	0690a0ef          	jal	ra,1c734 <__sprint_r>
   11ed0:	0e051063          	bnez	a0,11fb0 <_vfprintf_r+0x10a8>
   11ed4:	0ec12783          	lw	a5,236(sp)
   11ed8:	04012303          	lw	t1,64(sp)
   11edc:	10c10d93          	addi	s11,sp,268
   11ee0:	af4ff06f          	j	111d4 <_vfprintf_r+0x2cc>
   11ee4:	01000613          	li	a2,16
   11ee8:	0e812703          	lw	a4,232(sp)
   11eec:	07265463          	bge	a2,s2,11f54 <_vfprintf_r+0x104c>
   11ef0:	01000313          	li	t1,16
   11ef4:	00700b93          	li	s7,7
   11ef8:	00c0006f          	j	11f04 <_vfprintf_r+0xffc>
   11efc:	ff090913          	addi	s2,s2,-16
   11f00:	05235a63          	bge	t1,s2,11f54 <_vfprintf_r+0x104c>
   11f04:	00812683          	lw	a3,8(sp)
   11f08:	01078793          	addi	a5,a5,16
   11f0c:	00170713          	addi	a4,a4,1
   11f10:	00dda023          	sw	a3,0(s11)
   11f14:	006da223          	sw	t1,4(s11)
   11f18:	0ef12623          	sw	a5,236(sp)
   11f1c:	0ee12423          	sw	a4,232(sp)
   11f20:	008d8d93          	addi	s11,s11,8
   11f24:	fcebdce3          	bge	s7,a4,11efc <_vfprintf_r+0xff4>
   11f28:	0e410613          	addi	a2,sp,228
   11f2c:	000c0593          	mv	a1,s8
   11f30:	000d0513          	mv	a0,s10
   11f34:	0010a0ef          	jal	ra,1c734 <__sprint_r>
   11f38:	06051c63          	bnez	a0,11fb0 <_vfprintf_r+0x10a8>
   11f3c:	01000313          	li	t1,16
   11f40:	ff090913          	addi	s2,s2,-16
   11f44:	0ec12783          	lw	a5,236(sp)
   11f48:	0e812703          	lw	a4,232(sp)
   11f4c:	10c10d93          	addi	s11,sp,268
   11f50:	fb234ae3          	blt	t1,s2,11f04 <_vfprintf_r+0xffc>
   11f54:	00812683          	lw	a3,8(sp)
   11f58:	012787b3          	add	a5,a5,s2
   11f5c:	00170713          	addi	a4,a4,1
   11f60:	00dda023          	sw	a3,0(s11)
   11f64:	012da223          	sw	s2,4(s11)
   11f68:	0ef12623          	sw	a5,236(sp)
   11f6c:	0ee12423          	sw	a4,232(sp)
   11f70:	00700693          	li	a3,7
   11f74:	008d8d93          	addi	s11,s11,8
   11f78:	a6e6d263          	bge	a3,a4,111dc <_vfprintf_r+0x2d4>
   11f7c:	0e410613          	addi	a2,sp,228
   11f80:	000c0593          	mv	a1,s8
   11f84:	000d0513          	mv	a0,s10
   11f88:	7ac0a0ef          	jal	ra,1c734 <__sprint_r>
   11f8c:	02051263          	bnez	a0,11fb0 <_vfprintf_r+0x10a8>
   11f90:	0ec12783          	lw	a5,236(sp)
   11f94:	10c10d93          	addi	s11,sp,268
   11f98:	a44ff06f          	j	111dc <_vfprintf_r+0x2d4>
   11f9c:	0e410613          	addi	a2,sp,228
   11fa0:	000c0593          	mv	a1,s8
   11fa4:	000d0513          	mv	a0,s10
   11fa8:	78c0a0ef          	jal	ra,1c734 <__sprint_r>
   11fac:	a8050463          	beqz	a0,11234 <_vfprintf_r+0x32c>
   11fb0:	01012b83          	lw	s7,16(sp)
   11fb4:	aa0b8a63          	beqz	s7,11268 <_vfprintf_r+0x360>
   11fb8:	000b8593          	mv	a1,s7
   11fbc:	000d0513          	mv	a0,s10
   11fc0:	6bc020ef          	jal	ra,1467c <_free_r>
   11fc4:	aa4ff06f          	j	11268 <_vfprintf_r+0x360>
   11fc8:	01000613          	li	a2,16
   11fcc:	0e812703          	lw	a4,232(sp)
   11fd0:	00d64463          	blt	a2,a3,11fd8 <_vfprintf_r+0x10d0>
   11fd4:	4900106f          	j	13464 <_vfprintf_r+0x255c>
   11fd8:	00026637          	lui	a2,0x26
   11fdc:	e5060e93          	addi	t4,a2,-432 # 25e50 <blanks.1>
   11fe0:	05212023          	sw	s2,64(sp)
   11fe4:	04812623          	sw	s0,76(sp)
   11fe8:	04912823          	sw	s1,80(sp)
   11fec:	000d0413          	mv	s0,s10
   11ff0:	000c0493          	mv	s1,s8
   11ff4:	01000e13          	li	t3,16
   11ff8:	000b0c13          	mv	s8,s6
   11ffc:	00700293          	li	t0,7
   12000:	000a8b13          	mv	s6,s5
   12004:	00068d13          	mv	s10,a3
   12008:	00030a93          	mv	s5,t1
   1200c:	000e8913          	mv	s2,t4
   12010:	00c0006f          	j	1201c <_vfprintf_r+0x1114>
   12014:	ff0d0d13          	addi	s10,s10,-16
   12018:	05ae5a63          	bge	t3,s10,1206c <_vfprintf_r+0x1164>
   1201c:	01078793          	addi	a5,a5,16
   12020:	00170713          	addi	a4,a4,1
   12024:	012da023          	sw	s2,0(s11)
   12028:	01cda223          	sw	t3,4(s11)
   1202c:	0ef12623          	sw	a5,236(sp)
   12030:	0ee12423          	sw	a4,232(sp)
   12034:	008d8d93          	addi	s11,s11,8
   12038:	fce2dee3          	bge	t0,a4,12014 <_vfprintf_r+0x110c>
   1203c:	0e410613          	addi	a2,sp,228
   12040:	00048593          	mv	a1,s1
   12044:	00040513          	mv	a0,s0
   12048:	6ec0a0ef          	jal	ra,1c734 <__sprint_r>
   1204c:	7e051663          	bnez	a0,12838 <_vfprintf_r+0x1930>
   12050:	01000e13          	li	t3,16
   12054:	ff0d0d13          	addi	s10,s10,-16
   12058:	0ec12783          	lw	a5,236(sp)
   1205c:	0e812703          	lw	a4,232(sp)
   12060:	10c10d93          	addi	s11,sp,268
   12064:	00700293          	li	t0,7
   12068:	fbae4ae3          	blt	t3,s10,1201c <_vfprintf_r+0x1114>
   1206c:	000d0693          	mv	a3,s10
   12070:	000a8313          	mv	t1,s5
   12074:	00040d13          	mv	s10,s0
   12078:	000b0a93          	mv	s5,s6
   1207c:	00090e93          	mv	t4,s2
   12080:	000c0b13          	mv	s6,s8
   12084:	04c12403          	lw	s0,76(sp)
   12088:	00048c13          	mv	s8,s1
   1208c:	04012903          	lw	s2,64(sp)
   12090:	05012483          	lw	s1,80(sp)
   12094:	00d787b3          	add	a5,a5,a3
   12098:	00170713          	addi	a4,a4,1
   1209c:	00dda223          	sw	a3,4(s11)
   120a0:	01dda023          	sw	t4,0(s11)
   120a4:	0ef12623          	sw	a5,236(sp)
   120a8:	0ee12423          	sw	a4,232(sp)
   120ac:	00700693          	li	a3,7
   120b0:	008d8d93          	addi	s11,s11,8
   120b4:	8ae6d663          	bge	a3,a4,11160 <_vfprintf_r+0x258>
   120b8:	0e410613          	addi	a2,sp,228
   120bc:	000c0593          	mv	a1,s8
   120c0:	000d0513          	mv	a0,s10
   120c4:	04612023          	sw	t1,64(sp)
   120c8:	66c0a0ef          	jal	ra,1c734 <__sprint_r>
   120cc:	ee0512e3          	bnez	a0,11fb0 <_vfprintf_r+0x10a8>
   120d0:	0ec12783          	lw	a5,236(sp)
   120d4:	04012303          	lw	t1,64(sp)
   120d8:	10c10d93          	addi	s11,sp,268
   120dc:	884ff06f          	j	11160 <_vfprintf_r+0x258>
   120e0:	0e410613          	addi	a2,sp,228
   120e4:	000c0593          	mv	a1,s8
   120e8:	000d0513          	mv	a0,s10
   120ec:	04612023          	sw	t1,64(sp)
   120f0:	6440a0ef          	jal	ra,1c734 <__sprint_r>
   120f4:	ea051ee3          	bnez	a0,11fb0 <_vfprintf_r+0x10a8>
   120f8:	0ec12783          	lw	a5,236(sp)
   120fc:	04012303          	lw	t1,64(sp)
   12100:	10c10d93          	addi	s11,sp,268
   12104:	8c8ff06f          	j	111cc <_vfprintf_r+0x2c4>
   12108:	0cc12603          	lw	a2,204(sp)
   1210c:	68c05063          	blez	a2,1278c <_vfprintf_r+0x1884>
   12110:	01c12703          	lw	a4,28(sp)
   12114:	02012683          	lw	a3,32(sp)
   12118:	00070493          	mv	s1,a4
   1211c:	38e6c463          	blt	a3,a4,124a4 <_vfprintf_r+0x159c>
   12120:	02905663          	blez	s1,1214c <_vfprintf_r+0x1244>
   12124:	0e812703          	lw	a4,232(sp)
   12128:	009787b3          	add	a5,a5,s1
   1212c:	016da023          	sw	s6,0(s11)
   12130:	00170713          	addi	a4,a4,1
   12134:	009da223          	sw	s1,4(s11)
   12138:	0ef12623          	sw	a5,236(sp)
   1213c:	0ee12423          	sw	a4,232(sp)
   12140:	00700693          	li	a3,7
   12144:	008d8d93          	addi	s11,s11,8
   12148:	3ce6cce3          	blt	a3,a4,12d20 <_vfprintf_r+0x1e18>
   1214c:	fff4c713          	not	a4,s1
   12150:	41f75713          	srai	a4,a4,0x1f
   12154:	00e4f4b3          	and	s1,s1,a4
   12158:	01c12703          	lw	a4,28(sp)
   1215c:	409704b3          	sub	s1,a4,s1
   12160:	48904663          	bgtz	s1,125ec <_vfprintf_r+0x16e4>
   12164:	01c12683          	lw	a3,28(sp)
   12168:	400a7713          	andi	a4,s4,1024
   1216c:	00db04b3          	add	s1,s6,a3
   12170:	1a0714e3          	bnez	a4,12b18 <_vfprintf_r+0x1c10>
   12174:	0cc12683          	lw	a3,204(sp)
   12178:	02012703          	lw	a4,32(sp)
   1217c:	00e6c663          	blt	a3,a4,12188 <_vfprintf_r+0x1280>
   12180:	001a7713          	andi	a4,s4,1
   12184:	3c0702e3          	beqz	a4,12d48 <_vfprintf_r+0x1e40>
   12188:	03012703          	lw	a4,48(sp)
   1218c:	02c12603          	lw	a2,44(sp)
   12190:	008d8d93          	addi	s11,s11,8
   12194:	feedac23          	sw	a4,-8(s11)
   12198:	0e812703          	lw	a4,232(sp)
   1219c:	00c787b3          	add	a5,a5,a2
   121a0:	fecdae23          	sw	a2,-4(s11)
   121a4:	00170713          	addi	a4,a4,1
   121a8:	0ef12623          	sw	a5,236(sp)
   121ac:	0ee12423          	sw	a4,232(sp)
   121b0:	00700613          	li	a2,7
   121b4:	00e65463          	bge	a2,a4,121bc <_vfprintf_r+0x12b4>
   121b8:	10c0106f          	j	132c4 <_vfprintf_r+0x23bc>
   121bc:	02012603          	lw	a2,32(sp)
   121c0:	00cb0733          	add	a4,s6,a2
   121c4:	40970733          	sub	a4,a4,s1
   121c8:	40d60633          	sub	a2,a2,a3
   121cc:	00060913          	mv	s2,a2
   121d0:	00c75463          	bge	a4,a2,121d8 <_vfprintf_r+0x12d0>
   121d4:	00070913          	mv	s2,a4
   121d8:	03205863          	blez	s2,12208 <_vfprintf_r+0x1300>
   121dc:	0e812703          	lw	a4,232(sp)
   121e0:	012787b3          	add	a5,a5,s2
   121e4:	009da023          	sw	s1,0(s11)
   121e8:	00170713          	addi	a4,a4,1
   121ec:	012da223          	sw	s2,4(s11)
   121f0:	0ef12623          	sw	a5,236(sp)
   121f4:	0ee12423          	sw	a4,232(sp)
   121f8:	00700693          	li	a3,7
   121fc:	008d8d93          	addi	s11,s11,8
   12200:	00e6d463          	bge	a3,a4,12208 <_vfprintf_r+0x1300>
   12204:	2d00106f          	j	134d4 <_vfprintf_r+0x25cc>
   12208:	fff94713          	not	a4,s2
   1220c:	41f75713          	srai	a4,a4,0x1f
   12210:	00e97733          	and	a4,s2,a4
   12214:	40e604b3          	sub	s1,a2,a4
   12218:	00904463          	bgtz	s1,12220 <_vfprintf_r+0x1318>
   1221c:	ff1fe06f          	j	1120c <_vfprintf_r+0x304>
   12220:	01000693          	li	a3,16
   12224:	0e812703          	lw	a4,232(sp)
   12228:	6496de63          	bge	a3,s1,12884 <_vfprintf_r+0x197c>
   1222c:	01000913          	li	s2,16
   12230:	00700c93          	li	s9,7
   12234:	00c0006f          	j	12240 <_vfprintf_r+0x1338>
   12238:	ff048493          	addi	s1,s1,-16
   1223c:	64995463          	bge	s2,s1,12884 <_vfprintf_r+0x197c>
   12240:	00812683          	lw	a3,8(sp)
   12244:	01078793          	addi	a5,a5,16
   12248:	00170713          	addi	a4,a4,1
   1224c:	00dda023          	sw	a3,0(s11)
   12250:	012da223          	sw	s2,4(s11)
   12254:	0ef12623          	sw	a5,236(sp)
   12258:	0ee12423          	sw	a4,232(sp)
   1225c:	008d8d93          	addi	s11,s11,8
   12260:	fcecdce3          	bge	s9,a4,12238 <_vfprintf_r+0x1330>
   12264:	0e410613          	addi	a2,sp,228
   12268:	000c0593          	mv	a1,s8
   1226c:	000d0513          	mv	a0,s10
   12270:	4c40a0ef          	jal	ra,1c734 <__sprint_r>
   12274:	d2051ee3          	bnez	a0,11fb0 <_vfprintf_r+0x10a8>
   12278:	0ec12783          	lw	a5,236(sp)
   1227c:	0e812703          	lw	a4,232(sp)
   12280:	10c10d93          	addi	s11,sp,268
   12284:	fb5ff06f          	j	12238 <_vfprintf_r+0x1330>
   12288:	001a7793          	andi	a5,s4,1
   1228c:	c2079c63          	bnez	a5,116c4 <_vfprintf_r+0x7bc>
   12290:	00dda223          	sw	a3,4(s11)
   12294:	0f912623          	sw	s9,236(sp)
   12298:	0e912423          	sw	s1,232(sp)
   1229c:	00700793          	li	a5,7
   122a0:	2297ce63          	blt	a5,s1,124dc <_vfprintf_r+0x15d4>
   122a4:	00270713          	addi	a4,a4,2
   122a8:	010d8d93          	addi	s11,s11,16
   122ac:	ce8ff06f          	j	11794 <_vfprintf_r+0x88c>
   122b0:	cef05263          	blez	a5,11794 <_vfprintf_r+0x88c>
   122b4:	01000613          	li	a2,16
   122b8:	00f64463          	blt	a2,a5,122c0 <_vfprintf_r+0x13b8>
   122bc:	5cc0106f          	j	13888 <_vfprintf_r+0x2980>
   122c0:	01000d93          	li	s11,16
   122c4:	00700b13          	li	s6,7
   122c8:	00078b93          	mv	s7,a5
   122cc:	00068493          	mv	s1,a3
   122d0:	0100006f          	j	122e0 <_vfprintf_r+0x13d8>
   122d4:	ff0b8b93          	addi	s7,s7,-16
   122d8:	1d7ddc63          	bge	s11,s7,124b0 <_vfprintf_r+0x15a8>
   122dc:	00148493          	addi	s1,s1,1
   122e0:	00812783          	lw	a5,8(sp)
   122e4:	010c8c93          	addi	s9,s9,16
   122e8:	01b92223          	sw	s11,4(s2)
   122ec:	00f92023          	sw	a5,0(s2)
   122f0:	0f912623          	sw	s9,236(sp)
   122f4:	0e912423          	sw	s1,232(sp)
   122f8:	00890913          	addi	s2,s2,8
   122fc:	fc9b5ce3          	bge	s6,s1,122d4 <_vfprintf_r+0x13cc>
   12300:	0e410613          	addi	a2,sp,228
   12304:	000c0593          	mv	a1,s8
   12308:	000d0513          	mv	a0,s10
   1230c:	4280a0ef          	jal	ra,1c734 <__sprint_r>
   12310:	ca0510e3          	bnez	a0,11fb0 <_vfprintf_r+0x10a8>
   12314:	0ec12c83          	lw	s9,236(sp)
   12318:	0e812483          	lw	s1,232(sp)
   1231c:	10c10913          	addi	s2,sp,268
   12320:	fb5ff06f          	j	122d4 <_vfprintf_r+0x13cc>
   12324:	01412683          	lw	a3,20(sp)
   12328:	010a7793          	andi	a5,s4,16
   1232c:	00468713          	addi	a4,a3,4
   12330:	10079463          	bnez	a5,12438 <_vfprintf_r+0x1530>
   12334:	040a7793          	andi	a5,s4,64
   12338:	6c078e63          	beqz	a5,12a14 <_vfprintf_r+0x1b0c>
   1233c:	01412783          	lw	a5,20(sp)
   12340:	00000913          	li	s2,0
   12344:	00e12a23          	sw	a4,20(sp)
   12348:	0007dc83          	lhu	s9,0(a5)
   1234c:	f28ff06f          	j	11a74 <_vfprintf_r+0xb6c>
   12350:	01412683          	lw	a3,20(sp)
   12354:	010a7793          	andi	a5,s4,16
   12358:	00468713          	addi	a4,a3,4
   1235c:	12079a63          	bnez	a5,12490 <_vfprintf_r+0x1588>
   12360:	040a7793          	andi	a5,s4,64
   12364:	6e078663          	beqz	a5,12a50 <_vfprintf_r+0x1b48>
   12368:	01412783          	lw	a5,20(sp)
   1236c:	00e12a23          	sw	a4,20(sp)
   12370:	00079c83          	lh	s9,0(a5)
   12374:	41fcd913          	srai	s2,s9,0x1f
   12378:	00090793          	mv	a5,s2
   1237c:	f807d263          	bgez	a5,11b00 <_vfprintf_r+0xbf8>
   12380:	019037b3          	snez	a5,s9
   12384:	41200933          	neg	s2,s2
   12388:	40f90933          	sub	s2,s2,a5
   1238c:	02d00793          	li	a5,45
   12390:	0cf103a3          	sb	a5,199(sp)
   12394:	41900cb3          	neg	s9,s9
   12398:	000a0b93          	mv	s7,s4
   1239c:	00100793          	li	a5,1
   123a0:	e58ff06f          	j	119f8 <_vfprintf_r+0xaf0>
   123a4:	01412703          	lw	a4,20(sp)
   123a8:	010bf793          	andi	a5,s7,16
   123ac:	00470693          	addi	a3,a4,4
   123b0:	0c079663          	bnez	a5,1247c <_vfprintf_r+0x1574>
   123b4:	040bf793          	andi	a5,s7,64
   123b8:	66078c63          	beqz	a5,12a30 <_vfprintf_r+0x1b28>
   123bc:	01412783          	lw	a5,20(sp)
   123c0:	00000913          	li	s2,0
   123c4:	00d12a23          	sw	a3,20(sp)
   123c8:	0007dc83          	lhu	s9,0(a5)
   123cc:	00100793          	li	a5,1
   123d0:	e24ff06f          	j	119f4 <_vfprintf_r+0xaec>
   123d4:	001a7713          	andi	a4,s4,1
   123d8:	00071463          	bnez	a4,123e0 <_vfprintf_r+0x14d8>
   123dc:	e31fe06f          	j	1120c <_vfprintf_r+0x304>
   123e0:	979ff06f          	j	11d58 <_vfprintf_r+0xe50>
   123e4:	000c8313          	mv	t1,s9
   123e8:	eecff06f          	j	11ad4 <_vfprintf_r+0xbcc>
   123ec:	03000793          	li	a5,48
   123f0:	1af107a3          	sb	a5,431(sp)
   123f4:	1af10b13          	addi	s6,sp,431
   123f8:	e28ff06f          	j	11a20 <_vfprintf_r+0xb18>
   123fc:	03c12783          	lw	a5,60(sp)
   12400:	00044483          	lbu	s1,0(s0)
   12404:	00079463          	bnez	a5,1240c <_vfprintf_r+0x1504>
   12408:	cbdfe06f          	j	110c4 <_vfprintf_r+0x1bc>
   1240c:	0007c783          	lbu	a5,0(a5)
   12410:	00079463          	bnez	a5,12418 <_vfprintf_r+0x1510>
   12414:	cb1fe06f          	j	110c4 <_vfprintf_r+0x1bc>
   12418:	400a6a13          	ori	s4,s4,1024
   1241c:	ca9fe06f          	j	110c4 <_vfprintf_r+0x1bc>
   12420:	00c12683          	lw	a3,12(sp)
   12424:	00040b13          	mv	s6,s0
   12428:	41f6d793          	srai	a5,a3,0x1f
   1242c:	00d72023          	sw	a3,0(a4)
   12430:	00f72223          	sw	a5,4(a4)
   12434:	e21fe06f          	j	11254 <_vfprintf_r+0x34c>
   12438:	0006ac83          	lw	s9,0(a3)
   1243c:	00000913          	li	s2,0
   12440:	00e12a23          	sw	a4,20(sp)
   12444:	e30ff06f          	j	11a74 <_vfprintf_r+0xb6c>
   12448:	01412703          	lw	a4,20(sp)
   1244c:	00072783          	lw	a5,0(a4)
   12450:	00470713          	addi	a4,a4,4
   12454:	00e12a23          	sw	a4,20(sp)
   12458:	0007a603          	lw	a2,0(a5)
   1245c:	0047a683          	lw	a3,4(a5)
   12460:	0087a703          	lw	a4,8(a5)
   12464:	00c7a783          	lw	a5,12(a5)
   12468:	0ec12823          	sw	a2,240(sp)
   1246c:	0ed12a23          	sw	a3,244(sp)
   12470:	0ee12c23          	sw	a4,248(sp)
   12474:	0ef12e23          	sw	a5,252(sp)
   12478:	f61fe06f          	j	113d8 <_vfprintf_r+0x4d0>
   1247c:	00072c83          	lw	s9,0(a4)
   12480:	00000913          	li	s2,0
   12484:	00d12a23          	sw	a3,20(sp)
   12488:	00100793          	li	a5,1
   1248c:	d68ff06f          	j	119f4 <_vfprintf_r+0xaec>
   12490:	0006ac83          	lw	s9,0(a3)
   12494:	00e12a23          	sw	a4,20(sp)
   12498:	41fcd913          	srai	s2,s9,0x1f
   1249c:	00090793          	mv	a5,s2
   124a0:	e5cff06f          	j	11afc <_vfprintf_r+0xbf4>
   124a4:	00068493          	mv	s1,a3
   124a8:	c6904ee3          	bgtz	s1,12124 <_vfprintf_r+0x121c>
   124ac:	ca1ff06f          	j	1214c <_vfprintf_r+0x1244>
   124b0:	000b8793          	mv	a5,s7
   124b4:	00148713          	addi	a4,s1,1
   124b8:	00890693          	addi	a3,s2,8
   124bc:	00812603          	lw	a2,8(sp)
   124c0:	00fc8cb3          	add	s9,s9,a5
   124c4:	00f92223          	sw	a5,4(s2)
   124c8:	00c92023          	sw	a2,0(s2)
   124cc:	0f912623          	sw	s9,236(sp)
   124d0:	0ee12423          	sw	a4,232(sp)
   124d4:	00700793          	li	a5,7
   124d8:	00e7d4e3          	bge	a5,a4,12ce0 <_vfprintf_r+0x1dd8>
   124dc:	0e410613          	addi	a2,sp,228
   124e0:	000c0593          	mv	a1,s8
   124e4:	000d0513          	mv	a0,s10
   124e8:	24c0a0ef          	jal	ra,1c734 <__sprint_r>
   124ec:	ac0512e3          	bnez	a0,11fb0 <_vfprintf_r+0x10a8>
   124f0:	0e812703          	lw	a4,232(sp)
   124f4:	0ec12c83          	lw	s9,236(sp)
   124f8:	11410d93          	addi	s11,sp,276
   124fc:	00170713          	addi	a4,a4,1
   12500:	10c10913          	addi	s2,sp,268
   12504:	a90ff06f          	j	11794 <_vfprintf_r+0x88c>
   12508:	000c8313          	mv	t1,s9
   1250c:	000a0b93          	mv	s7,s4
   12510:	d78ff06f          	j	11a88 <_vfprintf_r+0xb80>
   12514:	000267b7          	lui	a5,0x26
   12518:	cb078793          	addi	a5,a5,-848 # 25cb0 <__clzsi2+0x168>
   1251c:	000c8313          	mv	t1,s9
   12520:	02f12a23          	sw	a5,52(sp)
   12524:	020a7793          	andi	a5,s4,32
   12528:	12078863          	beqz	a5,12658 <_vfprintf_r+0x1750>
   1252c:	01412783          	lw	a5,20(sp)
   12530:	00778b13          	addi	s6,a5,7
   12534:	ff8b7b13          	andi	s6,s6,-8
   12538:	000b2c83          	lw	s9,0(s6)
   1253c:	004b2903          	lw	s2,4(s6)
   12540:	008b0793          	addi	a5,s6,8
   12544:	00f12a23          	sw	a5,20(sp)
   12548:	001a7793          	andi	a5,s4,1
   1254c:	00078e63          	beqz	a5,12568 <_vfprintf_r+0x1660>
   12550:	012ce7b3          	or	a5,s9,s2
   12554:	00078a63          	beqz	a5,12568 <_vfprintf_r+0x1660>
   12558:	03000793          	li	a5,48
   1255c:	0cf10423          	sb	a5,200(sp)
   12560:	0c9104a3          	sb	s1,201(sp)
   12564:	002a6a13          	ori	s4,s4,2
   12568:	bffa7b93          	andi	s7,s4,-1025
   1256c:	00200793          	li	a5,2
   12570:	c84ff06f          	j	119f4 <_vfprintf_r+0xaec>
   12574:	0e410613          	addi	a2,sp,228
   12578:	000c0593          	mv	a1,s8
   1257c:	000d0513          	mv	a0,s10
   12580:	1b40a0ef          	jal	ra,1c734 <__sprint_r>
   12584:	a20516e3          	bnez	a0,11fb0 <_vfprintf_r+0x10a8>
   12588:	0ec12783          	lw	a5,236(sp)
   1258c:	10c10d93          	addi	s11,sp,268
   12590:	ff8ff06f          	j	11d88 <_vfprintf_r+0xe80>
   12594:	00144483          	lbu	s1,1(s0)
   12598:	200a6a13          	ori	s4,s4,512
   1259c:	00140413          	addi	s0,s0,1
   125a0:	b25fe06f          	j	110c4 <_vfprintf_r+0x1bc>
   125a4:	00144483          	lbu	s1,1(s0)
   125a8:	020a6a13          	ori	s4,s4,32
   125ac:	00140413          	addi	s0,s0,1
   125b0:	b15fe06f          	j	110c4 <_vfprintf_r+0x1bc>
   125b4:	000267b7          	lui	a5,0x26
   125b8:	cc478793          	addi	a5,a5,-828 # 25cc4 <__clzsi2+0x17c>
   125bc:	000c8313          	mv	t1,s9
   125c0:	02f12a23          	sw	a5,52(sp)
   125c4:	f61ff06f          	j	12524 <_vfprintf_r+0x161c>
   125c8:	000c8313          	mv	t1,s9
   125cc:	c84ff06f          	j	11a50 <_vfprintf_r+0xb48>
   125d0:	00600793          	li	a5,6
   125d4:	7797e663          	bltu	a5,s9,12d40 <_vfprintf_r+0x1e38>
   125d8:	00026837          	lui	a6,0x26
   125dc:	000c8a93          	mv	s5,s9
   125e0:	01212a23          	sw	s2,20(sp)
   125e4:	cd880b13          	addi	s6,a6,-808 # 25cd8 <__clzsi2+0x190>
   125e8:	b45fe06f          	j	1112c <_vfprintf_r+0x224>
   125ec:	01000693          	li	a3,16
   125f0:	0e812703          	lw	a4,232(sp)
   125f4:	4896de63          	bge	a3,s1,12a90 <_vfprintf_r+0x1b88>
   125f8:	01000c93          	li	s9,16
   125fc:	00700693          	li	a3,7
   12600:	00c0006f          	j	1260c <_vfprintf_r+0x1704>
   12604:	ff048493          	addi	s1,s1,-16
   12608:	489cd463          	bge	s9,s1,12a90 <_vfprintf_r+0x1b88>
   1260c:	00812603          	lw	a2,8(sp)
   12610:	01078793          	addi	a5,a5,16
   12614:	00170713          	addi	a4,a4,1
   12618:	00cda023          	sw	a2,0(s11)
   1261c:	019da223          	sw	s9,4(s11)
   12620:	0ef12623          	sw	a5,236(sp)
   12624:	0ee12423          	sw	a4,232(sp)
   12628:	008d8d93          	addi	s11,s11,8
   1262c:	fce6dce3          	bge	a3,a4,12604 <_vfprintf_r+0x16fc>
   12630:	0e410613          	addi	a2,sp,228
   12634:	000c0593          	mv	a1,s8
   12638:	000d0513          	mv	a0,s10
   1263c:	0f80a0ef          	jal	ra,1c734 <__sprint_r>
   12640:	960518e3          	bnez	a0,11fb0 <_vfprintf_r+0x10a8>
   12644:	0ec12783          	lw	a5,236(sp)
   12648:	0e812703          	lw	a4,232(sp)
   1264c:	10c10d93          	addi	s11,sp,268
   12650:	00700693          	li	a3,7
   12654:	fb1ff06f          	j	12604 <_vfprintf_r+0x16fc>
   12658:	01412683          	lw	a3,20(sp)
   1265c:	010a7793          	andi	a5,s4,16
   12660:	00468713          	addi	a4,a3,4
   12664:	1e078263          	beqz	a5,12848 <_vfprintf_r+0x1940>
   12668:	0006ac83          	lw	s9,0(a3)
   1266c:	00000913          	li	s2,0
   12670:	00e12a23          	sw	a4,20(sp)
   12674:	ed5ff06f          	j	12548 <_vfprintf_r+0x1640>
   12678:	0e410613          	addi	a2,sp,228
   1267c:	000c0593          	mv	a1,s8
   12680:	000d0513          	mv	a0,s10
   12684:	0b00a0ef          	jal	ra,1c734 <__sprint_r>
   12688:	920514e3          	bnez	a0,11fb0 <_vfprintf_r+0x10a8>
   1268c:	0ec12c83          	lw	s9,236(sp)
   12690:	0e812483          	lw	s1,232(sp)
   12694:	10c10913          	addi	s2,sp,268
   12698:	844ff06f          	j	116dc <_vfprintf_r+0x7d4>
   1269c:	0e410613          	addi	a2,sp,228
   126a0:	000c0593          	mv	a1,s8
   126a4:	000d0513          	mv	a0,s10
   126a8:	08c0a0ef          	jal	ra,1c734 <__sprint_r>
   126ac:	900512e3          	bnez	a0,11fb0 <_vfprintf_r+0x10a8>
   126b0:	0ec12c83          	lw	s9,236(sp)
   126b4:	0e812483          	lw	s1,232(sp)
   126b8:	10c10913          	addi	s2,sp,268
   126bc:	84cff06f          	j	11708 <_vfprintf_r+0x800>
   126c0:	1b010b13          	addi	s6,sp,432
   126c4:	00000793          	li	a5,0
   126c8:	00812823          	sw	s0,16(sp)
   126cc:	00912e23          	sw	s1,28(sp)
   126d0:	000b0413          	mv	s0,s6
   126d4:	03312223          	sw	s3,36(sp)
   126d8:	000c0b13          	mv	s6,s8
   126dc:	000c8493          	mv	s1,s9
   126e0:	00090993          	mv	s3,s2
   126e4:	03c12c83          	lw	s9,60(sp)
   126e8:	400bfa13          	andi	s4,s7,1024
   126ec:	0ff00a93          	li	s5,255
   126f0:	00030c13          	mv	s8,t1
   126f4:	00078913          	mv	s2,a5
   126f8:	0240006f          	j	1271c <_vfprintf_r+0x1814>
   126fc:	00a00613          	li	a2,10
   12700:	00000693          	li	a3,0
   12704:	00048513          	mv	a0,s1
   12708:	00098593          	mv	a1,s3
   1270c:	6380e0ef          	jal	ra,20d44 <__udivdi3>
   12710:	5c098263          	beqz	s3,12cd4 <_vfprintf_r+0x1dcc>
   12714:	00050493          	mv	s1,a0
   12718:	00058993          	mv	s3,a1
   1271c:	00a00613          	li	a2,10
   12720:	00000693          	li	a3,0
   12724:	00048513          	mv	a0,s1
   12728:	00098593          	mv	a1,s3
   1272c:	3f10e0ef          	jal	ra,2131c <__umoddi3>
   12730:	03050513          	addi	a0,a0,48
   12734:	fea40fa3          	sb	a0,-1(s0)
   12738:	00190913          	addi	s2,s2,1
   1273c:	fff40413          	addi	s0,s0,-1
   12740:	fa0a0ee3          	beqz	s4,126fc <_vfprintf_r+0x17f4>
   12744:	000cc683          	lbu	a3,0(s9)
   12748:	fad91ae3          	bne	s2,a3,126fc <_vfprintf_r+0x17f4>
   1274c:	fb5908e3          	beq	s2,s5,126fc <_vfprintf_r+0x17f4>
   12750:	38099463          	bnez	s3,12ad8 <_vfprintf_r+0x1bd0>
   12754:	00900793          	li	a5,9
   12758:	3897e063          	bltu	a5,s1,12ad8 <_vfprintf_r+0x1bd0>
   1275c:	000c0313          	mv	t1,s8
   12760:	1b010793          	addi	a5,sp,432
   12764:	000b0c13          	mv	s8,s6
   12768:	00040b13          	mv	s6,s0
   1276c:	03912e23          	sw	s9,60(sp)
   12770:	01c12483          	lw	s1,28(sp)
   12774:	02412983          	lw	s3,36(sp)
   12778:	01012403          	lw	s0,16(sp)
   1277c:	03212023          	sw	s2,32(sp)
   12780:	41678cb3          	sub	s9,a5,s6
   12784:	000b8a13          	mv	s4,s7
   12788:	a98ff06f          	j	11a20 <_vfprintf_r+0xb18>
   1278c:	0e812703          	lw	a4,232(sp)
   12790:	000266b7          	lui	a3,0x26
   12794:	ce068693          	addi	a3,a3,-800 # 25ce0 <__clzsi2+0x198>
   12798:	00dda023          	sw	a3,0(s11)
   1279c:	00178793          	addi	a5,a5,1
   127a0:	00100693          	li	a3,1
   127a4:	00170713          	addi	a4,a4,1
   127a8:	00dda223          	sw	a3,4(s11)
   127ac:	0ef12623          	sw	a5,236(sp)
   127b0:	0ee12423          	sw	a4,232(sp)
   127b4:	00700693          	li	a3,7
   127b8:	008d8d93          	addi	s11,s11,8
   127bc:	52e6ca63          	blt	a3,a4,12cf0 <_vfprintf_r+0x1de8>
   127c0:	18061e63          	bnez	a2,1295c <_vfprintf_r+0x1a54>
   127c4:	02012683          	lw	a3,32(sp)
   127c8:	001a7713          	andi	a4,s4,1
   127cc:	00d76733          	or	a4,a4,a3
   127d0:	00071463          	bnez	a4,127d8 <_vfprintf_r+0x18d0>
   127d4:	a39fe06f          	j	1120c <_vfprintf_r+0x304>
   127d8:	03012703          	lw	a4,48(sp)
   127dc:	02c12683          	lw	a3,44(sp)
   127e0:	008d8893          	addi	a7,s11,8
   127e4:	00eda023          	sw	a4,0(s11)
   127e8:	0e812703          	lw	a4,232(sp)
   127ec:	00f687b3          	add	a5,a3,a5
   127f0:	00dda223          	sw	a3,4(s11)
   127f4:	00170713          	addi	a4,a4,1
   127f8:	0ef12623          	sw	a5,236(sp)
   127fc:	0ee12423          	sw	a4,232(sp)
   12800:	00700693          	li	a3,7
   12804:	5ee6c663          	blt	a3,a4,12df0 <_vfprintf_r+0x1ee8>
   12808:	02012683          	lw	a3,32(sp)
   1280c:	00170713          	addi	a4,a4,1
   12810:	0168a023          	sw	s6,0(a7)
   12814:	00f687b3          	add	a5,a3,a5
   12818:	00d8a223          	sw	a3,4(a7)
   1281c:	0ef12623          	sw	a5,236(sp)
   12820:	0ee12423          	sw	a4,232(sp)
   12824:	00700693          	li	a3,7
   12828:	00888d93          	addi	s11,a7,8
   1282c:	00e6c463          	blt	a3,a4,12834 <_vfprintf_r+0x192c>
   12830:	9ddfe06f          	j	1120c <_vfprintf_r+0x304>
   12834:	f85fe06f          	j	117b8 <_vfprintf_r+0x8b0>
   12838:	01012b83          	lw	s7,16(sp)
   1283c:	00040d13          	mv	s10,s0
   12840:	00048c13          	mv	s8,s1
   12844:	f70ff06f          	j	11fb4 <_vfprintf_r+0x10ac>
   12848:	040a7793          	andi	a5,s4,64
   1284c:	1a078663          	beqz	a5,129f8 <_vfprintf_r+0x1af0>
   12850:	01412783          	lw	a5,20(sp)
   12854:	00000913          	li	s2,0
   12858:	00e12a23          	sw	a4,20(sp)
   1285c:	0007dc83          	lhu	s9,0(a5)
   12860:	ce9ff06f          	j	12548 <_vfprintf_r+0x1640>
   12864:	0e410613          	addi	a2,sp,228
   12868:	000c0593          	mv	a1,s8
   1286c:	000d0513          	mv	a0,s10
   12870:	6c5090ef          	jal	ra,1c734 <__sprint_r>
   12874:	f2051e63          	bnez	a0,11fb0 <_vfprintf_r+0x10a8>
   12878:	0ec12783          	lw	a5,236(sp)
   1287c:	10c10d93          	addi	s11,sp,268
   12880:	cccff06f          	j	11d4c <_vfprintf_r+0xe44>
   12884:	00812683          	lw	a3,8(sp)
   12888:	009787b3          	add	a5,a5,s1
   1288c:	009da223          	sw	s1,4(s11)
   12890:	00dda023          	sw	a3,0(s11)
   12894:	00170713          	addi	a4,a4,1
   12898:	0ef12623          	sw	a5,236(sp)
   1289c:	0ee12423          	sw	a4,232(sp)
   128a0:	00700693          	li	a3,7
   128a4:	00e6c463          	blt	a3,a4,128ac <_vfprintf_r+0x19a4>
   128a8:	961fe06f          	j	11208 <_vfprintf_r+0x300>
   128ac:	f0dfe06f          	j	117b8 <_vfprintf_r+0x8b0>
   128b0:	01012b83          	lw	s7,16(sp)
   128b4:	00040c13          	mv	s8,s0
   128b8:	efcff06f          	j	11fb4 <_vfprintf_r+0x10ac>
   128bc:	0f012783          	lw	a5,240(sp)
   128c0:	0a010593          	addi	a1,sp,160
   128c4:	0b010513          	addi	a0,sp,176
   128c8:	0af12823          	sw	a5,176(sp)
   128cc:	0f412783          	lw	a5,244(sp)
   128d0:	0a012023          	sw	zero,160(sp)
   128d4:	0a012223          	sw	zero,164(sp)
   128d8:	0af12a23          	sw	a5,180(sp)
   128dc:	0f812783          	lw	a5,248(sp)
   128e0:	0a012423          	sw	zero,168(sp)
   128e4:	0a012623          	sw	zero,172(sp)
   128e8:	0af12c23          	sw	a5,184(sp)
   128ec:	0fc12783          	lw	a5,252(sp)
   128f0:	0af12e23          	sw	a5,188(sp)
   128f4:	7910f0ef          	jal	ra,22884 <__letf2>
   128f8:	1e054ae3          	bltz	a0,132ec <_vfprintf_r+0x23e4>
   128fc:	0c714783          	lbu	a5,199(sp)
   12900:	04700713          	li	a4,71
   12904:	40975863          	bge	a4,s1,12d14 <_vfprintf_r+0x1e0c>
   12908:	00026837          	lui	a6,0x26
   1290c:	ca480b13          	addi	s6,a6,-860 # 25ca4 <__clzsi2+0x15c>
   12910:	00012823          	sw	zero,16(sp)
   12914:	02012423          	sw	zero,40(sp)
   12918:	02012223          	sw	zero,36(sp)
   1291c:	00012e23          	sw	zero,28(sp)
   12920:	f7fa7a13          	andi	s4,s4,-129
   12924:	00300a93          	li	s5,3
   12928:	00300c93          	li	s9,3
   1292c:	00000313          	li	t1,0
   12930:	00078463          	beqz	a5,12938 <_vfprintf_r+0x1a30>
   12934:	808ff06f          	j	1193c <_vfprintf_r+0xa34>
   12938:	809fe06f          	j	11140 <_vfprintf_r+0x238>
   1293c:	00c12783          	lw	a5,12(sp)
   12940:	00040b13          	mv	s6,s0
   12944:	00f72023          	sw	a5,0(a4)
   12948:	90dfe06f          	j	11254 <_vfprintf_r+0x34c>
   1294c:	000b0513          	mv	a0,s6
   12950:	218070ef          	jal	ra,19b68 <strlen>
   12954:	00050c93          	mv	s9,a0
   12958:	fb9fe06f          	j	11910 <_vfprintf_r+0xa08>
   1295c:	03012703          	lw	a4,48(sp)
   12960:	02c12683          	lw	a3,44(sp)
   12964:	008d8893          	addi	a7,s11,8
   12968:	00eda023          	sw	a4,0(s11)
   1296c:	0e812703          	lw	a4,232(sp)
   12970:	00f687b3          	add	a5,a3,a5
   12974:	00dda223          	sw	a3,4(s11)
   12978:	00170713          	addi	a4,a4,1
   1297c:	0ef12623          	sw	a5,236(sp)
   12980:	0ee12423          	sw	a4,232(sp)
   12984:	00700693          	li	a3,7
   12988:	46e6c463          	blt	a3,a4,12df0 <_vfprintf_r+0x1ee8>
   1298c:	e6065ee3          	bgez	a2,12808 <_vfprintf_r+0x1900>
   12990:	ff000693          	li	a3,-16
   12994:	40c004b3          	neg	s1,a2
   12998:	48d65ae3          	bge	a2,a3,1362c <_vfprintf_r+0x2724>
   1299c:	01000913          	li	s2,16
   129a0:	00700c93          	li	s9,7
   129a4:	00c0006f          	j	129b0 <_vfprintf_r+0x1aa8>
   129a8:	ff048493          	addi	s1,s1,-16
   129ac:	489950e3          	bge	s2,s1,1362c <_vfprintf_r+0x2724>
   129b0:	00812683          	lw	a3,8(sp)
   129b4:	01078793          	addi	a5,a5,16
   129b8:	00170713          	addi	a4,a4,1
   129bc:	00d8a023          	sw	a3,0(a7)
   129c0:	0128a223          	sw	s2,4(a7)
   129c4:	0ef12623          	sw	a5,236(sp)
   129c8:	0ee12423          	sw	a4,232(sp)
   129cc:	00888893          	addi	a7,a7,8
   129d0:	fcecdce3          	bge	s9,a4,129a8 <_vfprintf_r+0x1aa0>
   129d4:	0e410613          	addi	a2,sp,228
   129d8:	000c0593          	mv	a1,s8
   129dc:	000d0513          	mv	a0,s10
   129e0:	555090ef          	jal	ra,1c734 <__sprint_r>
   129e4:	dc051663          	bnez	a0,11fb0 <_vfprintf_r+0x10a8>
   129e8:	0ec12783          	lw	a5,236(sp)
   129ec:	0e812703          	lw	a4,232(sp)
   129f0:	10c10893          	addi	a7,sp,268
   129f4:	fb5ff06f          	j	129a8 <_vfprintf_r+0x1aa0>
   129f8:	200a7793          	andi	a5,s4,512
   129fc:	3c078063          	beqz	a5,12dbc <_vfprintf_r+0x1eb4>
   12a00:	01412783          	lw	a5,20(sp)
   12a04:	00000913          	li	s2,0
   12a08:	00e12a23          	sw	a4,20(sp)
   12a0c:	0007cc83          	lbu	s9,0(a5)
   12a10:	b39ff06f          	j	12548 <_vfprintf_r+0x1640>
   12a14:	200a7793          	andi	a5,s4,512
   12a18:	38078863          	beqz	a5,12da8 <_vfprintf_r+0x1ea0>
   12a1c:	01412783          	lw	a5,20(sp)
   12a20:	00000913          	li	s2,0
   12a24:	00e12a23          	sw	a4,20(sp)
   12a28:	0007cc83          	lbu	s9,0(a5)
   12a2c:	848ff06f          	j	11a74 <_vfprintf_r+0xb6c>
   12a30:	200bf793          	andi	a5,s7,512
   12a34:	34078e63          	beqz	a5,12d90 <_vfprintf_r+0x1e88>
   12a38:	01412783          	lw	a5,20(sp)
   12a3c:	00000913          	li	s2,0
   12a40:	00d12a23          	sw	a3,20(sp)
   12a44:	0007cc83          	lbu	s9,0(a5)
   12a48:	00100793          	li	a5,1
   12a4c:	fa9fe06f          	j	119f4 <_vfprintf_r+0xaec>
   12a50:	200a7793          	andi	a5,s4,512
   12a54:	32078263          	beqz	a5,12d78 <_vfprintf_r+0x1e70>
   12a58:	01412783          	lw	a5,20(sp)
   12a5c:	00e12a23          	sw	a4,20(sp)
   12a60:	00078c83          	lb	s9,0(a5)
   12a64:	41fcd913          	srai	s2,s9,0x1f
   12a68:	00090793          	mv	a5,s2
   12a6c:	890ff06f          	j	11afc <_vfprintf_r+0xbf4>
   12a70:	0fc12783          	lw	a5,252(sp)
   12a74:	3607c863          	bltz	a5,12de4 <_vfprintf_r+0x1edc>
   12a78:	0c714783          	lbu	a5,199(sp)
   12a7c:	04700713          	li	a4,71
   12a80:	249754e3          	bge	a4,s1,134c8 <_vfprintf_r+0x25c0>
   12a84:	00026837          	lui	a6,0x26
   12a88:	cac80b13          	addi	s6,a6,-852 # 25cac <__clzsi2+0x164>
   12a8c:	e85ff06f          	j	12910 <_vfprintf_r+0x1a08>
   12a90:	00812683          	lw	a3,8(sp)
   12a94:	009787b3          	add	a5,a5,s1
   12a98:	00170713          	addi	a4,a4,1
   12a9c:	00dda023          	sw	a3,0(s11)
   12aa0:	009da223          	sw	s1,4(s11)
   12aa4:	0ef12623          	sw	a5,236(sp)
   12aa8:	0ee12423          	sw	a4,232(sp)
   12aac:	00700693          	li	a3,7
   12ab0:	008d8d93          	addi	s11,s11,8
   12ab4:	eae6d863          	bge	a3,a4,12164 <_vfprintf_r+0x125c>
   12ab8:	0e410613          	addi	a2,sp,228
   12abc:	000c0593          	mv	a1,s8
   12ac0:	000d0513          	mv	a0,s10
   12ac4:	471090ef          	jal	ra,1c734 <__sprint_r>
   12ac8:	ce051463          	bnez	a0,11fb0 <_vfprintf_r+0x10a8>
   12acc:	0ec12783          	lw	a5,236(sp)
   12ad0:	10c10d93          	addi	s11,sp,268
   12ad4:	e90ff06f          	j	12164 <_vfprintf_r+0x125c>
   12ad8:	04412783          	lw	a5,68(sp)
   12adc:	04812583          	lw	a1,72(sp)
   12ae0:	00000913          	li	s2,0
   12ae4:	40f40433          	sub	s0,s0,a5
   12ae8:	00078613          	mv	a2,a5
   12aec:	00040513          	mv	a0,s0
   12af0:	104070ef          	jal	ra,19bf4 <strncpy>
   12af4:	001cc583          	lbu	a1,1(s9)
   12af8:	00a00613          	li	a2,10
   12afc:	00000693          	li	a3,0
   12b00:	00b03833          	snez	a6,a1
   12b04:	00048513          	mv	a0,s1
   12b08:	00098593          	mv	a1,s3
   12b0c:	010c8cb3          	add	s9,s9,a6
   12b10:	2340e0ef          	jal	ra,20d44 <__udivdi3>
   12b14:	c01ff06f          	j	12714 <_vfprintf_r+0x180c>
   12b18:	02012703          	lw	a4,32(sp)
   12b1c:	05312623          	sw	s3,76(sp)
   12b20:	02412983          	lw	s3,36(sp)
   12b24:	01412e23          	sw	s4,28(sp)
   12b28:	04812023          	sw	s0,64(sp)
   12b2c:	03512223          	sw	s5,36(sp)
   12b30:	00eb0bb3          	add	s7,s6,a4
   12b34:	000d8693          	mv	a3,s11
   12b38:	03c12403          	lw	s0,60(sp)
   12b3c:	000b0d93          	mv	s11,s6
   12b40:	04412c83          	lw	s9,68(sp)
   12b44:	02812a03          	lw	s4,40(sp)
   12b48:	04812a83          	lw	s5,72(sp)
   12b4c:	00700313          	li	t1,7
   12b50:	01000913          	li	s2,16
   12b54:	000c0b13          	mv	s6,s8
   12b58:	08098863          	beqz	s3,12be8 <_vfprintf_r+0x1ce0>
   12b5c:	080a1863          	bnez	s4,12bec <_vfprintf_r+0x1ce4>
   12b60:	fff40413          	addi	s0,s0,-1
   12b64:	fff98993          	addi	s3,s3,-1
   12b68:	0e812703          	lw	a4,232(sp)
   12b6c:	019787b3          	add	a5,a5,s9
   12b70:	0156a023          	sw	s5,0(a3)
   12b74:	00170713          	addi	a4,a4,1
   12b78:	0196a223          	sw	s9,4(a3)
   12b7c:	0ef12623          	sw	a5,236(sp)
   12b80:	0ee12423          	sw	a4,232(sp)
   12b84:	00868693          	addi	a3,a3,8
   12b88:	10e34063          	blt	t1,a4,12c88 <_vfprintf_r+0x1d80>
   12b8c:	00044603          	lbu	a2,0(s0)
   12b90:	409b8533          	sub	a0,s7,s1
   12b94:	00060c13          	mv	s8,a2
   12b98:	00c55463          	bge	a0,a2,12ba0 <_vfprintf_r+0x1c98>
   12b9c:	00050c13          	mv	s8,a0
   12ba0:	03805663          	blez	s8,12bcc <_vfprintf_r+0x1cc4>
   12ba4:	0e812603          	lw	a2,232(sp)
   12ba8:	018787b3          	add	a5,a5,s8
   12bac:	0096a023          	sw	s1,0(a3)
   12bb0:	00160613          	addi	a2,a2,1
   12bb4:	0186a223          	sw	s8,4(a3)
   12bb8:	0ef12623          	sw	a5,236(sp)
   12bbc:	0ec12423          	sw	a2,232(sp)
   12bc0:	0ec34663          	blt	t1,a2,12cac <_vfprintf_r+0x1da4>
   12bc4:	00044603          	lbu	a2,0(s0)
   12bc8:	00868693          	addi	a3,a3,8
   12bcc:	fffc4513          	not	a0,s8
   12bd0:	41f55513          	srai	a0,a0,0x1f
   12bd4:	00ac7733          	and	a4,s8,a0
   12bd8:	40e60c33          	sub	s8,a2,a4
   12bdc:	01804c63          	bgtz	s8,12bf4 <_vfprintf_r+0x1cec>
   12be0:	00c484b3          	add	s1,s1,a2
   12be4:	f6099ce3          	bnez	s3,12b5c <_vfprintf_r+0x1c54>
   12be8:	5c0a0463          	beqz	s4,131b0 <_vfprintf_r+0x22a8>
   12bec:	fffa0a13          	addi	s4,s4,-1
   12bf0:	f79ff06f          	j	12b68 <_vfprintf_r+0x1c60>
   12bf4:	0e812603          	lw	a2,232(sp)
   12bf8:	01894863          	blt	s2,s8,12c08 <_vfprintf_r+0x1d00>
   12bfc:	05c0006f          	j	12c58 <_vfprintf_r+0x1d50>
   12c00:	ff0c0c13          	addi	s8,s8,-16
   12c04:	05895a63          	bge	s2,s8,12c58 <_vfprintf_r+0x1d50>
   12c08:	00812703          	lw	a4,8(sp)
   12c0c:	01078793          	addi	a5,a5,16
   12c10:	00160613          	addi	a2,a2,1
   12c14:	00e6a023          	sw	a4,0(a3)
   12c18:	0126a223          	sw	s2,4(a3)
   12c1c:	0ef12623          	sw	a5,236(sp)
   12c20:	0ec12423          	sw	a2,232(sp)
   12c24:	00868693          	addi	a3,a3,8
   12c28:	fcc35ce3          	bge	t1,a2,12c00 <_vfprintf_r+0x1cf8>
   12c2c:	0e410613          	addi	a2,sp,228
   12c30:	000b0593          	mv	a1,s6
   12c34:	000d0513          	mv	a0,s10
   12c38:	2fd090ef          	jal	ra,1c734 <__sprint_r>
   12c3c:	62051a63          	bnez	a0,13270 <_vfprintf_r+0x2368>
   12c40:	ff0c0c13          	addi	s8,s8,-16
   12c44:	0ec12783          	lw	a5,236(sp)
   12c48:	0e812603          	lw	a2,232(sp)
   12c4c:	10c10693          	addi	a3,sp,268
   12c50:	00700313          	li	t1,7
   12c54:	fb894ae3          	blt	s2,s8,12c08 <_vfprintf_r+0x1d00>
   12c58:	00812703          	lw	a4,8(sp)
   12c5c:	018787b3          	add	a5,a5,s8
   12c60:	00160613          	addi	a2,a2,1
   12c64:	00e6a023          	sw	a4,0(a3)
   12c68:	0186a223          	sw	s8,4(a3)
   12c6c:	0ef12623          	sw	a5,236(sp)
   12c70:	0ec12423          	sw	a2,232(sp)
   12c74:	62c34263          	blt	t1,a2,13298 <_vfprintf_r+0x2390>
   12c78:	00044603          	lbu	a2,0(s0)
   12c7c:	00868693          	addi	a3,a3,8
   12c80:	00c484b3          	add	s1,s1,a2
   12c84:	f61ff06f          	j	12be4 <_vfprintf_r+0x1cdc>
   12c88:	0e410613          	addi	a2,sp,228
   12c8c:	000b0593          	mv	a1,s6
   12c90:	000d0513          	mv	a0,s10
   12c94:	2a1090ef          	jal	ra,1c734 <__sprint_r>
   12c98:	5c051c63          	bnez	a0,13270 <_vfprintf_r+0x2368>
   12c9c:	0ec12783          	lw	a5,236(sp)
   12ca0:	10c10693          	addi	a3,sp,268
   12ca4:	00700313          	li	t1,7
   12ca8:	ee5ff06f          	j	12b8c <_vfprintf_r+0x1c84>
   12cac:	0e410613          	addi	a2,sp,228
   12cb0:	000b0593          	mv	a1,s6
   12cb4:	000d0513          	mv	a0,s10
   12cb8:	27d090ef          	jal	ra,1c734 <__sprint_r>
   12cbc:	5a051a63          	bnez	a0,13270 <_vfprintf_r+0x2368>
   12cc0:	00044603          	lbu	a2,0(s0)
   12cc4:	0ec12783          	lw	a5,236(sp)
   12cc8:	10c10693          	addi	a3,sp,268
   12ccc:	00700313          	li	t1,7
   12cd0:	efdff06f          	j	12bcc <_vfprintf_r+0x1cc4>
   12cd4:	00900793          	li	a5,9
   12cd8:	a297eee3          	bltu	a5,s1,12714 <_vfprintf_r+0x180c>
   12cdc:	a81ff06f          	j	1275c <_vfprintf_r+0x1854>
   12ce0:	00170713          	addi	a4,a4,1
   12ce4:	00868d93          	addi	s11,a3,8
   12ce8:	00068913          	mv	s2,a3
   12cec:	aa9fe06f          	j	11794 <_vfprintf_r+0x88c>
   12cf0:	0e410613          	addi	a2,sp,228
   12cf4:	000c0593          	mv	a1,s8
   12cf8:	000d0513          	mv	a0,s10
   12cfc:	239090ef          	jal	ra,1c734 <__sprint_r>
   12d00:	aa051863          	bnez	a0,11fb0 <_vfprintf_r+0x10a8>
   12d04:	0cc12603          	lw	a2,204(sp)
   12d08:	0ec12783          	lw	a5,236(sp)
   12d0c:	10c10d93          	addi	s11,sp,268
   12d10:	ab1ff06f          	j	127c0 <_vfprintf_r+0x18b8>
   12d14:	00026837          	lui	a6,0x26
   12d18:	ca080b13          	addi	s6,a6,-864 # 25ca0 <__clzsi2+0x158>
   12d1c:	bf5ff06f          	j	12910 <_vfprintf_r+0x1a08>
   12d20:	0e410613          	addi	a2,sp,228
   12d24:	000c0593          	mv	a1,s8
   12d28:	000d0513          	mv	a0,s10
   12d2c:	209090ef          	jal	ra,1c734 <__sprint_r>
   12d30:	a8051063          	bnez	a0,11fb0 <_vfprintf_r+0x10a8>
   12d34:	0ec12783          	lw	a5,236(sp)
   12d38:	10c10d93          	addi	s11,sp,268
   12d3c:	c10ff06f          	j	1214c <_vfprintf_r+0x1244>
   12d40:	00600c93          	li	s9,6
   12d44:	895ff06f          	j	125d8 <_vfprintf_r+0x16d0>
   12d48:	02012703          	lw	a4,32(sp)
   12d4c:	00eb0833          	add	a6,s6,a4
   12d50:	40d70633          	sub	a2,a4,a3
   12d54:	409806b3          	sub	a3,a6,s1
   12d58:	00060913          	mv	s2,a2
   12d5c:	cac6d663          	bge	a3,a2,12208 <_vfprintf_r+0x1300>
   12d60:	00068913          	mv	s2,a3
   12d64:	ca4ff06f          	j	12208 <_vfprintf_r+0x1300>
   12d68:	00c12783          	lw	a5,12(sp)
   12d6c:	00040b13          	mv	s6,s0
   12d70:	00f71023          	sh	a5,0(a4)
   12d74:	ce0fe06f          	j	11254 <_vfprintf_r+0x34c>
   12d78:	01412783          	lw	a5,20(sp)
   12d7c:	00e12a23          	sw	a4,20(sp)
   12d80:	0007ac83          	lw	s9,0(a5)
   12d84:	41fcd913          	srai	s2,s9,0x1f
   12d88:	00090793          	mv	a5,s2
   12d8c:	d71fe06f          	j	11afc <_vfprintf_r+0xbf4>
   12d90:	01412783          	lw	a5,20(sp)
   12d94:	00000913          	li	s2,0
   12d98:	00d12a23          	sw	a3,20(sp)
   12d9c:	0007ac83          	lw	s9,0(a5)
   12da0:	00100793          	li	a5,1
   12da4:	c51fe06f          	j	119f4 <_vfprintf_r+0xaec>
   12da8:	01412783          	lw	a5,20(sp)
   12dac:	00000913          	li	s2,0
   12db0:	00e12a23          	sw	a4,20(sp)
   12db4:	0007ac83          	lw	s9,0(a5)
   12db8:	cbdfe06f          	j	11a74 <_vfprintf_r+0xb6c>
   12dbc:	01412783          	lw	a5,20(sp)
   12dc0:	00000913          	li	s2,0
   12dc4:	00e12a23          	sw	a4,20(sp)
   12dc8:	0007ac83          	lw	s9,0(a5)
   12dcc:	f7cff06f          	j	12548 <_vfprintf_r+0x1640>
   12dd0:	0e410613          	addi	a2,sp,228
   12dd4:	000c0593          	mv	a1,s8
   12dd8:	000d0513          	mv	a0,s10
   12ddc:	159090ef          	jal	ra,1c734 <__sprint_r>
   12de0:	c88fe06f          	j	11268 <_vfprintf_r+0x360>
   12de4:	02d00793          	li	a5,45
   12de8:	0cf103a3          	sb	a5,199(sp)
   12dec:	c91ff06f          	j	12a7c <_vfprintf_r+0x1b74>
   12df0:	0e410613          	addi	a2,sp,228
   12df4:	000c0593          	mv	a1,s8
   12df8:	000d0513          	mv	a0,s10
   12dfc:	139090ef          	jal	ra,1c734 <__sprint_r>
   12e00:	9a051863          	bnez	a0,11fb0 <_vfprintf_r+0x10a8>
   12e04:	0cc12603          	lw	a2,204(sp)
   12e08:	0ec12783          	lw	a5,236(sp)
   12e0c:	0e812703          	lw	a4,232(sp)
   12e10:	10c10893          	addi	a7,sp,268
   12e14:	9e065ae3          	bgez	a2,12808 <_vfprintf_r+0x1900>
   12e18:	b79ff06f          	j	12990 <_vfprintf_r+0x1a88>
   12e1c:	03000793          	li	a5,48
   12e20:	0cf10423          	sb	a5,200(sp)
   12e24:	05800793          	li	a5,88
   12e28:	002a6713          	ori	a4,s4,2
   12e2c:	0cf104a3          	sb	a5,201(sp)
   12e30:	04e12823          	sw	a4,80(sp)
   12e34:	06300793          	li	a5,99
   12e38:	00012823          	sw	zero,16(sp)
   12e3c:	14c10b13          	addi	s6,sp,332
   12e40:	7c67c463          	blt	a5,t1,13608 <_vfprintf_r+0x2700>
   12e44:	0fc12b83          	lw	s7,252(sp)
   12e48:	fdf4f793          	andi	a5,s1,-33
   12e4c:	02f12423          	sw	a5,40(sp)
   12e50:	04012c23          	sw	zero,88(sp)
   12e54:	0f012e03          	lw	t3,240(sp)
   12e58:	0f412e83          	lw	t4,244(sp)
   12e5c:	0f812f03          	lw	t5,248(sp)
   12e60:	102a6a13          	ori	s4,s4,258
   12e64:	420bc063          	bltz	s7,13284 <_vfprintf_r+0x237c>
   12e68:	06100793          	li	a5,97
   12e6c:	04f48ce3          	beq	s1,a5,136c4 <_vfprintf_r+0x27bc>
   12e70:	04100793          	li	a5,65
   12e74:	00f48463          	beq	s1,a5,12e7c <_vfprintf_r+0x1f74>
   12e78:	df0fe06f          	j	11468 <_vfprintf_r+0x560>
   12e7c:	0b010a93          	addi	s5,sp,176
   12e80:	000a8513          	mv	a0,s5
   12e84:	04612a23          	sw	t1,84(sp)
   12e88:	0bc12823          	sw	t3,176(sp)
   12e8c:	0bd12a23          	sw	t4,180(sp)
   12e90:	0be12c23          	sw	t5,184(sp)
   12e94:	0b712e23          	sw	s7,188(sp)
   12e98:	07d120ef          	jal	ra,25714 <__trunctfdf2>
   12e9c:	0cc10613          	addi	a2,sp,204
   12ea0:	7b4060ef          	jal	ra,19654 <frexp>
   12ea4:	00058613          	mv	a2,a1
   12ea8:	00050593          	mv	a1,a0
   12eac:	000a8513          	mv	a0,s5
   12eb0:	670120ef          	jal	ra,25520 <__extenddftf2>
   12eb4:	0b012783          	lw	a5,176(sp)
   12eb8:	0a010c93          	addi	s9,sp,160
   12ebc:	09010913          	addi	s2,sp,144
   12ec0:	08f12823          	sw	a5,144(sp)
   12ec4:	0b412783          	lw	a5,180(sp)
   12ec8:	08010613          	addi	a2,sp,128
   12ecc:	00090593          	mv	a1,s2
   12ed0:	08f12a23          	sw	a5,148(sp)
   12ed4:	0b812783          	lw	a5,184(sp)
   12ed8:	000c8513          	mv	a0,s9
   12edc:	04c12023          	sw	a2,64(sp)
   12ee0:	08f12c23          	sw	a5,152(sp)
   12ee4:	0bc12783          	lw	a5,188(sp)
   12ee8:	08012023          	sw	zero,128(sp)
   12eec:	08012223          	sw	zero,132(sp)
   12ef0:	08f12e23          	sw	a5,156(sp)
   12ef4:	3ffc07b7          	lui	a5,0x3ffc0
   12ef8:	08f12623          	sw	a5,140(sp)
   12efc:	08012423          	sw	zero,136(sp)
   12f00:	2c90f0ef          	jal	ra,229c8 <__multf3>
   12f04:	0a012683          	lw	a3,160(sp)
   12f08:	0a412e03          	lw	t3,164(sp)
   12f0c:	0a812e83          	lw	t4,168(sp)
   12f10:	0ac12f03          	lw	t5,172(sp)
   12f14:	000c8593          	mv	a1,s9
   12f18:	000a8513          	mv	a0,s5
   12f1c:	0ad12823          	sw	a3,176(sp)
   12f20:	04d12623          	sw	a3,76(sp)
   12f24:	0bc12a23          	sw	t3,180(sp)
   12f28:	03c12223          	sw	t3,36(sp)
   12f2c:	0bd12c23          	sw	t4,184(sp)
   12f30:	03d12023          	sw	t4,32(sp)
   12f34:	0be12e23          	sw	t5,188(sp)
   12f38:	01e12e23          	sw	t5,28(sp)
   12f3c:	0a012023          	sw	zero,160(sp)
   12f40:	0a012223          	sw	zero,164(sp)
   12f44:	0a012423          	sw	zero,168(sp)
   12f48:	0a012623          	sw	zero,172(sp)
   12f4c:	7280f0ef          	jal	ra,22674 <__eqtf2>
   12f50:	01c12f03          	lw	t5,28(sp)
   12f54:	02012e83          	lw	t4,32(sp)
   12f58:	02412e03          	lw	t3,36(sp)
   12f5c:	04c12683          	lw	a3,76(sp)
   12f60:	05412303          	lw	t1,84(sp)
   12f64:	00051663          	bnez	a0,12f70 <_vfprintf_r+0x2068>
   12f68:	00100793          	li	a5,1
   12f6c:	0cf12623          	sw	a5,204(sp)
   12f70:	000267b7          	lui	a5,0x26
   12f74:	cc478793          	addi	a5,a5,-828 # 25cc4 <__clzsi2+0x17c>
   12f78:	02f12223          	sw	a5,36(sp)
   12f7c:	fff30713          	addi	a4,t1,-1
   12f80:	05412e23          	sw	s4,92(sp)
   12f84:	06912223          	sw	s1,100(sp)
   12f88:	07b12823          	sw	s11,112(sp)
   12f8c:	07a12a23          	sw	s10,116(sp)
   12f90:	07812c23          	sw	s8,120(sp)
   12f94:	06812023          	sw	s0,96(sp)
   12f98:	07312423          	sw	s3,104(sp)
   12f9c:	06612623          	sw	t1,108(sp)
   12fa0:	000b0c13          	mv	s8,s6
   12fa4:	00070b93          	mv	s7,a4
   12fa8:	07612e23          	sw	s6,124(sp)
   12fac:	00068d13          	mv	s10,a3
   12fb0:	000e0d93          	mv	s11,t3
   12fb4:	000e8493          	mv	s1,t4
   12fb8:	000f0a13          	mv	s4,t5
   12fbc:	0480006f          	j	13004 <_vfprintf_r+0x20fc>
   12fc0:	000c8593          	mv	a1,s9
   12fc4:	000a8513          	mv	a0,s5
   12fc8:	02c12023          	sw	a2,32(sp)
   12fcc:	01f12e23          	sw	t6,28(sp)
   12fd0:	0bf12c23          	sw	t6,184(sp)
   12fd4:	0ac12e23          	sw	a2,188(sp)
   12fd8:	0b612823          	sw	s6,176(sp)
   12fdc:	0b312a23          	sw	s3,180(sp)
   12fe0:	0a012023          	sw	zero,160(sp)
   12fe4:	0a012223          	sw	zero,164(sp)
   12fe8:	0a012423          	sw	zero,168(sp)
   12fec:	0a012623          	sw	zero,172(sp)
   12ff0:	6840f0ef          	jal	ra,22674 <__eqtf2>
   12ff4:	fffb8b93          	addi	s7,s7,-1
   12ff8:	00048f93          	mv	t6,s1
   12ffc:	000a0613          	mv	a2,s4
   13000:	0e050263          	beqz	a0,130e4 <_vfprintf_r+0x21dc>
   13004:	400307b7          	lui	a5,0x40030
   13008:	00090613          	mv	a2,s2
   1300c:	000c8593          	mv	a1,s9
   13010:	000a8513          	mv	a0,s5
   13014:	08f12e23          	sw	a5,156(sp)
   13018:	0ba12023          	sw	s10,160(sp)
   1301c:	0bb12223          	sw	s11,164(sp)
   13020:	0a912423          	sw	s1,168(sp)
   13024:	0b412623          	sw	s4,172(sp)
   13028:	08012823          	sw	zero,144(sp)
   1302c:	08012a23          	sw	zero,148(sp)
   13030:	08012c23          	sw	zero,152(sp)
   13034:	1950f0ef          	jal	ra,229c8 <__multf3>
   13038:	000a8513          	mv	a0,s5
   1303c:	27c120ef          	jal	ra,252b8 <__fixtfsi>
   13040:	00050593          	mv	a1,a0
   13044:	00050413          	mv	s0,a0
   13048:	000a8513          	mv	a0,s5
   1304c:	0b012983          	lw	s3,176(sp)
   13050:	0b412483          	lw	s1,180(sp)
   13054:	0b812b03          	lw	s6,184(sp)
   13058:	0bc12a03          	lw	s4,188(sp)
   1305c:	370120ef          	jal	ra,253cc <__floatsitf>
   13060:	0b012683          	lw	a3,176(sp)
   13064:	04012603          	lw	a2,64(sp)
   13068:	00090593          	mv	a1,s2
   1306c:	08d12023          	sw	a3,128(sp)
   13070:	0b412683          	lw	a3,180(sp)
   13074:	000c8513          	mv	a0,s9
   13078:	09312823          	sw	s3,144(sp)
   1307c:	08d12223          	sw	a3,132(sp)
   13080:	0b812683          	lw	a3,184(sp)
   13084:	08912a23          	sw	s1,148(sp)
   13088:	09612c23          	sw	s6,152(sp)
   1308c:	08d12423          	sw	a3,136(sp)
   13090:	0bc12683          	lw	a3,188(sp)
   13094:	09412e23          	sw	s4,156(sp)
   13098:	08d12623          	sw	a3,140(sp)
   1309c:	4a9100ef          	jal	ra,23d44 <__subtf3>
   130a0:	02412783          	lw	a5,36(sp)
   130a4:	0a012b03          	lw	s6,160(sp)
   130a8:	0a412983          	lw	s3,164(sp)
   130ac:	008786b3          	add	a3,a5,s0
   130b0:	0006c683          	lbu	a3,0(a3)
   130b4:	0a812f83          	lw	t6,168(sp)
   130b8:	0ac12603          	lw	a2,172(sp)
   130bc:	05812a23          	sw	s8,84(sp)
   130c0:	00dc0023          	sb	a3,0(s8)
   130c4:	05712623          	sw	s7,76(sp)
   130c8:	fff00793          	li	a5,-1
   130cc:	001c0c13          	addi	s8,s8,1
   130d0:	000b0d13          	mv	s10,s6
   130d4:	00098d93          	mv	s11,s3
   130d8:	000f8493          	mv	s1,t6
   130dc:	00060a13          	mv	s4,a2
   130e0:	eefb90e3          	bne	s7,a5,12fc0 <_vfprintf_r+0x20b8>
   130e4:	06c12303          	lw	t1,108(sp)
   130e8:	000b0393          	mv	t2,s6
   130ec:	00098293          	mv	t0,s3
   130f0:	3ffe0937          	lui	s2,0x3ffe0
   130f4:	000c8593          	mv	a1,s9
   130f8:	000a8513          	mv	a0,s5
   130fc:	02612023          	sw	t1,32(sp)
   13100:	00812e23          	sw	s0,28(sp)
   13104:	05c12a03          	lw	s4,92(sp)
   13108:	06412483          	lw	s1,100(sp)
   1310c:	06012403          	lw	s0,96(sp)
   13110:	0a712823          	sw	t2,176(sp)
   13114:	06712223          	sw	t2,100(sp)
   13118:	0a512a23          	sw	t0,180(sp)
   1311c:	06512023          	sw	t0,96(sp)
   13120:	0bf12c23          	sw	t6,184(sp)
   13124:	05f12e23          	sw	t6,92(sp)
   13128:	0ac12e23          	sw	a2,188(sp)
   1312c:	04c12023          	sw	a2,64(sp)
   13130:	0a012023          	sw	zero,160(sp)
   13134:	0a012223          	sw	zero,164(sp)
   13138:	0a012423          	sw	zero,168(sp)
   1313c:	0b212623          	sw	s2,172(sp)
   13140:	6000f0ef          	jal	ra,22740 <__getf2>
   13144:	000c0b93          	mv	s7,s8
   13148:	07012d83          	lw	s11,112(sp)
   1314c:	07412d03          	lw	s10,116(sp)
   13150:	07812c03          	lw	s8,120(sp)
   13154:	07c12b03          	lw	s6,124(sp)
   13158:	06812983          	lw	s3,104(sp)
   1315c:	02012303          	lw	t1,32(sp)
   13160:	44a04463          	bgtz	a0,135a8 <_vfprintf_r+0x26a0>
   13164:	000c8593          	mv	a1,s9
   13168:	000a8513          	mv	a0,s5
   1316c:	5080f0ef          	jal	ra,22674 <__eqtf2>
   13170:	02012303          	lw	t1,32(sp)
   13174:	00051863          	bnez	a0,13184 <_vfprintf_r+0x227c>
   13178:	01c12783          	lw	a5,28(sp)
   1317c:	0017fc93          	andi	s9,a5,1
   13180:	420c9463          	bnez	s9,135a8 <_vfprintf_r+0x26a0>
   13184:	04c12783          	lw	a5,76(sp)
   13188:	03000693          	li	a3,48
   1318c:	00178713          	addi	a4,a5,1 # 40030001 <__BSS_END__+0x40008519>
   13190:	00eb8733          	add	a4,s7,a4
   13194:	0007c863          	bltz	a5,131a4 <_vfprintf_r+0x229c>
   13198:	001b8b93          	addi	s7,s7,1
   1319c:	fedb8fa3          	sb	a3,-1(s7)
   131a0:	ff771ce3          	bne	a4,s7,13198 <_vfprintf_r+0x2290>
   131a4:	416b87b3          	sub	a5,s7,s6
   131a8:	02f12023          	sw	a5,32(sp)
   131ac:	b5cfe06f          	j	11508 <_vfprintf_r+0x600>
   131b0:	02012703          	lw	a4,32(sp)
   131b4:	000b0c13          	mv	s8,s6
   131b8:	000d8b13          	mv	s6,s11
   131bc:	02812e23          	sw	s0,60(sp)
   131c0:	00eb0733          	add	a4,s6,a4
   131c4:	01c12a03          	lw	s4,28(sp)
   131c8:	04012403          	lw	s0,64(sp)
   131cc:	04c12983          	lw	s3,76(sp)
   131d0:	02412a83          	lw	s5,36(sp)
   131d4:	00068d93          	mv	s11,a3
   131d8:	00976463          	bltu	a4,s1,131e0 <_vfprintf_r+0x22d8>
   131dc:	f99fe06f          	j	12174 <_vfprintf_r+0x126c>
   131e0:	00070493          	mv	s1,a4
   131e4:	f91fe06f          	j	12174 <_vfprintf_r+0x126c>
   131e8:	01c12703          	lw	a4,28(sp)
   131ec:	ffd00793          	li	a5,-3
   131f0:	00f74463          	blt	a4,a5,131f8 <_vfprintf_r+0x22f0>
   131f4:	02e35463          	bge	t1,a4,1321c <_vfprintf_r+0x2314>
   131f8:	ffe48493          	addi	s1,s1,-2
   131fc:	fdf4f793          	andi	a5,s1,-33
   13200:	02f12423          	sw	a5,40(sp)
   13204:	b2cfe06f          	j	11530 <_vfprintf_r+0x628>
   13208:	0c714783          	lbu	a5,199(sp)
   1320c:	00000313          	li	t1,0
   13210:	00078463          	beqz	a5,13218 <_vfprintf_r+0x2310>
   13214:	f28fe06f          	j	1193c <_vfprintf_r+0xa34>
   13218:	f29fd06f          	j	11140 <_vfprintf_r+0x238>
   1321c:	01c12703          	lw	a4,28(sp)
   13220:	02012783          	lw	a5,32(sp)
   13224:	24f74663          	blt	a4,a5,13470 <_vfprintf_r+0x2568>
   13228:	05012783          	lw	a5,80(sp)
   1322c:	00070c93          	mv	s9,a4
   13230:	0017f793          	andi	a5,a5,1
   13234:	00078663          	beqz	a5,13240 <_vfprintf_r+0x2338>
   13238:	02c12783          	lw	a5,44(sp)
   1323c:	00f70cb3          	add	s9,a4,a5
   13240:	05012783          	lw	a5,80(sp)
   13244:	4007f793          	andi	a5,a5,1024
   13248:	00078663          	beqz	a5,13254 <_vfprintf_r+0x234c>
   1324c:	01c12783          	lw	a5,28(sp)
   13250:	56f04c63          	bgtz	a5,137c8 <_vfprintf_r+0x28c0>
   13254:	fffcca93          	not	s5,s9
   13258:	41fada93          	srai	s5,s5,0x1f
   1325c:	015cfab3          	and	s5,s9,s5
   13260:	06700493          	li	s1,103
   13264:	02012423          	sw	zero,40(sp)
   13268:	02012223          	sw	zero,36(sp)
   1326c:	bf0fe06f          	j	1165c <_vfprintf_r+0x754>
   13270:	01012b83          	lw	s7,16(sp)
   13274:	000b0c13          	mv	s8,s6
   13278:	d3dfe06f          	j	11fb4 <_vfprintf_r+0x10ac>
   1327c:	00012823          	sw	zero,16(sp)
   13280:	00078a13          	mv	s4,a5
   13284:	800007b7          	lui	a5,0x80000
   13288:	0177cbb3          	xor	s7,a5,s7
   1328c:	02d00793          	li	a5,45
   13290:	04f12c23          	sw	a5,88(sp)
   13294:	bd5ff06f          	j	12e68 <_vfprintf_r+0x1f60>
   13298:	0e410613          	addi	a2,sp,228
   1329c:	000b0593          	mv	a1,s6
   132a0:	000d0513          	mv	a0,s10
   132a4:	490090ef          	jal	ra,1c734 <__sprint_r>
   132a8:	fc0514e3          	bnez	a0,13270 <_vfprintf_r+0x2368>
   132ac:	00044603          	lbu	a2,0(s0)
   132b0:	0ec12783          	lw	a5,236(sp)
   132b4:	10c10693          	addi	a3,sp,268
   132b8:	00700313          	li	t1,7
   132bc:	00c484b3          	add	s1,s1,a2
   132c0:	925ff06f          	j	12be4 <_vfprintf_r+0x1cdc>
   132c4:	0e410613          	addi	a2,sp,228
   132c8:	000c0593          	mv	a1,s8
   132cc:	000d0513          	mv	a0,s10
   132d0:	464090ef          	jal	ra,1c734 <__sprint_r>
   132d4:	00050463          	beqz	a0,132dc <_vfprintf_r+0x23d4>
   132d8:	cd9fe06f          	j	11fb0 <_vfprintf_r+0x10a8>
   132dc:	0cc12683          	lw	a3,204(sp)
   132e0:	0ec12783          	lw	a5,236(sp)
   132e4:	10c10d93          	addi	s11,sp,268
   132e8:	ed5fe06f          	j	121bc <_vfprintf_r+0x12b4>
   132ec:	02d00793          	li	a5,45
   132f0:	0cf103a3          	sb	a5,199(sp)
   132f4:	e0cff06f          	j	12900 <_vfprintf_r+0x19f8>
   132f8:	0b010a93          	addi	s5,sp,176
   132fc:	0d010793          	addi	a5,sp,208
   13300:	0cc10713          	addi	a4,sp,204
   13304:	00030693          	mv	a3,t1
   13308:	0dc10813          	addi	a6,sp,220
   1330c:	00300613          	li	a2,3
   13310:	000a8593          	mv	a1,s5
   13314:	000d0513          	mv	a0,s10
   13318:	04612023          	sw	t1,64(sp)
   1331c:	0bc12823          	sw	t3,176(sp)
   13320:	03c12223          	sw	t3,36(sp)
   13324:	0bd12a23          	sw	t4,180(sp)
   13328:	03d12023          	sw	t4,32(sp)
   1332c:	0be12c23          	sw	t5,184(sp)
   13330:	01e12e23          	sw	t5,28(sp)
   13334:	0b712e23          	sw	s7,188(sp)
   13338:	0c8030ef          	jal	ra,16400 <_ldtoa_r>
   1333c:	00054703          	lbu	a4,0(a0)
   13340:	03000793          	li	a5,48
   13344:	01c12f03          	lw	t5,28(sp)
   13348:	02012e83          	lw	t4,32(sp)
   1334c:	02412e03          	lw	t3,36(sp)
   13350:	04012303          	lw	t1,64(sp)
   13354:	00050b13          	mv	s6,a0
   13358:	0a010c93          	addi	s9,sp,160
   1335c:	06f70c63          	beq	a4,a5,133d4 <_vfprintf_r+0x24cc>
   13360:	0cc12783          	lw	a5,204(sp)
   13364:	006787b3          	add	a5,a5,t1
   13368:	00fb0933          	add	s2,s6,a5
   1336c:	000c8593          	mv	a1,s9
   13370:	000a8513          	mv	a0,s5
   13374:	00612e23          	sw	t1,28(sp)
   13378:	0bc12823          	sw	t3,176(sp)
   1337c:	0bd12a23          	sw	t4,180(sp)
   13380:	0be12c23          	sw	t5,184(sp)
   13384:	0b712e23          	sw	s7,188(sp)
   13388:	0a012023          	sw	zero,160(sp)
   1338c:	0a012223          	sw	zero,164(sp)
   13390:	0a012423          	sw	zero,168(sp)
   13394:	0a012623          	sw	zero,172(sp)
   13398:	2dc0f0ef          	jal	ra,22674 <__eqtf2>
   1339c:	01c12303          	lw	t1,28(sp)
   133a0:	00090693          	mv	a3,s2
   133a4:	00051463          	bnez	a0,133ac <_vfprintf_r+0x24a4>
   133a8:	958fe06f          	j	11500 <_vfprintf_r+0x5f8>
   133ac:	0dc12683          	lw	a3,220(sp)
   133b0:	0126e463          	bltu	a3,s2,133b8 <_vfprintf_r+0x24b0>
   133b4:	94cfe06f          	j	11500 <_vfprintf_r+0x5f8>
   133b8:	03000713          	li	a4,48
   133bc:	00168793          	addi	a5,a3,1
   133c0:	0cf12e23          	sw	a5,220(sp)
   133c4:	00e68023          	sb	a4,0(a3)
   133c8:	0dc12683          	lw	a3,220(sp)
   133cc:	ff26e8e3          	bltu	a3,s2,133bc <_vfprintf_r+0x24b4>
   133d0:	930fe06f          	j	11500 <_vfprintf_r+0x5f8>
   133d4:	0a010c93          	addi	s9,sp,160
   133d8:	000c8593          	mv	a1,s9
   133dc:	000a8513          	mv	a0,s5
   133e0:	04612023          	sw	t1,64(sp)
   133e4:	0bc12823          	sw	t3,176(sp)
   133e8:	03c12223          	sw	t3,36(sp)
   133ec:	0bd12a23          	sw	t4,180(sp)
   133f0:	03d12023          	sw	t4,32(sp)
   133f4:	0be12c23          	sw	t5,184(sp)
   133f8:	01e12e23          	sw	t5,28(sp)
   133fc:	0b712e23          	sw	s7,188(sp)
   13400:	0a012023          	sw	zero,160(sp)
   13404:	0a012223          	sw	zero,164(sp)
   13408:	0a012423          	sw	zero,168(sp)
   1340c:	0a012623          	sw	zero,172(sp)
   13410:	2640f0ef          	jal	ra,22674 <__eqtf2>
   13414:	01c12f03          	lw	t5,28(sp)
   13418:	02012e83          	lw	t4,32(sp)
   1341c:	02412e03          	lw	t3,36(sp)
   13420:	04012303          	lw	t1,64(sp)
   13424:	f2050ee3          	beqz	a0,13360 <_vfprintf_r+0x2458>
   13428:	00100793          	li	a5,1
   1342c:	406787b3          	sub	a5,a5,t1
   13430:	0cf12623          	sw	a5,204(sp)
   13434:	f31ff06f          	j	13364 <_vfprintf_r+0x245c>
   13438:	0c714783          	lbu	a5,199(sp)
   1343c:	01212a23          	sw	s2,20(sp)
   13440:	02012423          	sw	zero,40(sp)
   13444:	02012223          	sw	zero,36(sp)
   13448:	00012e23          	sw	zero,28(sp)
   1344c:	00030a93          	mv	s5,t1
   13450:	00030c93          	mv	s9,t1
   13454:	00000313          	li	t1,0
   13458:	00078463          	beqz	a5,13460 <_vfprintf_r+0x2558>
   1345c:	ce0fe06f          	j	1193c <_vfprintf_r+0xa34>
   13460:	ce1fd06f          	j	11140 <_vfprintf_r+0x238>
   13464:	00026637          	lui	a2,0x26
   13468:	e5060e93          	addi	t4,a2,-432 # 25e50 <blanks.1>
   1346c:	c29fe06f          	j	12094 <_vfprintf_r+0x118c>
   13470:	02012783          	lw	a5,32(sp)
   13474:	02c12703          	lw	a4,44(sp)
   13478:	06700493          	li	s1,103
   1347c:	00e78cb3          	add	s9,a5,a4
   13480:	01c12783          	lw	a5,28(sp)
   13484:	3cf05c63          	blez	a5,1385c <_vfprintf_r+0x2954>
   13488:	05012783          	lw	a5,80(sp)
   1348c:	4007f793          	andi	a5,a5,1024
   13490:	32079e63          	bnez	a5,137cc <_vfprintf_r+0x28c4>
   13494:	fffcca93          	not	s5,s9
   13498:	41fada93          	srai	s5,s5,0x1f
   1349c:	015cfab3          	and	s5,s9,s5
   134a0:	dc5ff06f          	j	13264 <_vfprintf_r+0x235c>
   134a4:	05012783          	lw	a5,80(sp)
   134a8:	01c12703          	lw	a4,28(sp)
   134ac:	0017f793          	andi	a5,a5,1
   134b0:	0067e7b3          	or	a5,a5,t1
   134b4:	3ce05e63          	blez	a4,13890 <_vfprintf_r+0x2988>
   134b8:	38079863          	bnez	a5,13848 <_vfprintf_r+0x2940>
   134bc:	01c12c83          	lw	s9,28(sp)
   134c0:	06600493          	li	s1,102
   134c4:	fc5ff06f          	j	13488 <_vfprintf_r+0x2580>
   134c8:	00026837          	lui	a6,0x26
   134cc:	ca880b13          	addi	s6,a6,-856 # 25ca8 <__clzsi2+0x160>
   134d0:	c40ff06f          	j	12910 <_vfprintf_r+0x1a08>
   134d4:	0e410613          	addi	a2,sp,228
   134d8:	000c0593          	mv	a1,s8
   134dc:	000d0513          	mv	a0,s10
   134e0:	254090ef          	jal	ra,1c734 <__sprint_r>
   134e4:	00050463          	beqz	a0,134ec <_vfprintf_r+0x25e4>
   134e8:	ac9fe06f          	j	11fb0 <_vfprintf_r+0x10a8>
   134ec:	0cc12483          	lw	s1,204(sp)
   134f0:	02012703          	lw	a4,32(sp)
   134f4:	0ec12783          	lw	a5,236(sp)
   134f8:	10c10d93          	addi	s11,sp,268
   134fc:	40970633          	sub	a2,a4,s1
   13500:	d09fe06f          	j	12208 <_vfprintf_r+0x1300>
   13504:	000266b7          	lui	a3,0x26
   13508:	e5068e93          	addi	t4,a3,-432 # 25e50 <blanks.1>
   1350c:	b48fe06f          	j	11854 <_vfprintf_r+0x94c>
   13510:	fff00793          	li	a5,-1
   13514:	00f12623          	sw	a5,12(sp)
   13518:	d61fd06f          	j	11278 <_vfprintf_r+0x370>
   1351c:	03000793          	li	a5,48
   13520:	0cf10423          	sb	a5,200(sp)
   13524:	07800793          	li	a5,120
   13528:	901ff06f          	j	12e28 <_vfprintf_r+0x1f20>
   1352c:	000a0b93          	mv	s7,s4
   13530:	e0cfe06f          	j	11b3c <_vfprintf_r+0xc34>
   13534:	00130913          	addi	s2,t1,1
   13538:	0b010a93          	addi	s5,sp,176
   1353c:	0dc10813          	addi	a6,sp,220
   13540:	0d010793          	addi	a5,sp,208
   13544:	0cc10713          	addi	a4,sp,204
   13548:	00090693          	mv	a3,s2
   1354c:	00200613          	li	a2,2
   13550:	000a8593          	mv	a1,s5
   13554:	000d0513          	mv	a0,s10
   13558:	04612023          	sw	t1,64(sp)
   1355c:	0bc12823          	sw	t3,176(sp)
   13560:	03c12223          	sw	t3,36(sp)
   13564:	0bd12a23          	sw	t4,180(sp)
   13568:	03d12023          	sw	t4,32(sp)
   1356c:	0be12c23          	sw	t5,184(sp)
   13570:	01e12e23          	sw	t5,28(sp)
   13574:	0b712e23          	sw	s7,188(sp)
   13578:	689020ef          	jal	ra,16400 <_ldtoa_r>
   1357c:	01c12f03          	lw	t5,28(sp)
   13580:	02012e83          	lw	t4,32(sp)
   13584:	02412e03          	lw	t3,36(sp)
   13588:	04012303          	lw	t1,64(sp)
   1358c:	00050b13          	mv	s6,a0
   13590:	012b0933          	add	s2,s6,s2
   13594:	0a010c93          	addi	s9,sp,160
   13598:	dd5ff06f          	j	1336c <_vfprintf_r+0x2464>
   1359c:	006b0933          	add	s2,s6,t1
   135a0:	0a010c93          	addi	s9,sp,160
   135a4:	dc9ff06f          	j	1336c <_vfprintf_r+0x2464>
   135a8:	05412783          	lw	a5,84(sp)
   135ac:	000b8713          	mv	a4,s7
   135b0:	0cf12e23          	sw	a5,220(sp)
   135b4:	02412783          	lw	a5,36(sp)
   135b8:	fffbc683          	lbu	a3,-1(s7)
   135bc:	00f7c603          	lbu	a2,15(a5) # 8000000f <__BSS_END__+0x7ffd8527>
   135c0:	02c69063          	bne	a3,a2,135e0 <_vfprintf_r+0x26d8>
   135c4:	03000593          	li	a1,48
   135c8:	feb70fa3          	sb	a1,-1(a4)
   135cc:	0dc12703          	lw	a4,220(sp)
   135d0:	fff70793          	addi	a5,a4,-1
   135d4:	0cf12e23          	sw	a5,220(sp)
   135d8:	fff74683          	lbu	a3,-1(a4)
   135dc:	fed606e3          	beq	a2,a3,135c8 <_vfprintf_r+0x26c0>
   135e0:	00168613          	addi	a2,a3,1
   135e4:	03900593          	li	a1,57
   135e8:	0ff67613          	andi	a2,a2,255
   135ec:	00b68663          	beq	a3,a1,135f8 <_vfprintf_r+0x26f0>
   135f0:	fec70fa3          	sb	a2,-1(a4)
   135f4:	bb1ff06f          	j	131a4 <_vfprintf_r+0x229c>
   135f8:	02412783          	lw	a5,36(sp)
   135fc:	00a7c603          	lbu	a2,10(a5)
   13600:	fec70fa3          	sb	a2,-1(a4)
   13604:	ba1ff06f          	j	131a4 <_vfprintf_r+0x229c>
   13608:	00130593          	addi	a1,t1,1
   1360c:	000d0513          	mv	a0,s10
   13610:	00612823          	sw	t1,16(sp)
   13614:	46c040ef          	jal	ra,17a80 <_malloc_r>
   13618:	01012303          	lw	t1,16(sp)
   1361c:	00050b13          	mv	s6,a0
   13620:	2e050463          	beqz	a0,13908 <_vfprintf_r+0x2a00>
   13624:	00a12823          	sw	a0,16(sp)
   13628:	81dff06f          	j	12e44 <_vfprintf_r+0x1f3c>
   1362c:	00812683          	lw	a3,8(sp)
   13630:	009787b3          	add	a5,a5,s1
   13634:	00170713          	addi	a4,a4,1
   13638:	00d8a023          	sw	a3,0(a7)
   1363c:	0098a223          	sw	s1,4(a7)
   13640:	0ef12623          	sw	a5,236(sp)
   13644:	0ee12423          	sw	a4,232(sp)
   13648:	00700693          	li	a3,7
   1364c:	00888893          	addi	a7,a7,8
   13650:	9ae6dc63          	bge	a3,a4,12808 <_vfprintf_r+0x1900>
   13654:	0e410613          	addi	a2,sp,228
   13658:	000c0593          	mv	a1,s8
   1365c:	000d0513          	mv	a0,s10
   13660:	0d4090ef          	jal	ra,1c734 <__sprint_r>
   13664:	00050463          	beqz	a0,1366c <_vfprintf_r+0x2764>
   13668:	949fe06f          	j	11fb0 <_vfprintf_r+0x10a8>
   1366c:	0ec12783          	lw	a5,236(sp)
   13670:	0e812703          	lw	a4,232(sp)
   13674:	10c10893          	addi	a7,sp,268
   13678:	990ff06f          	j	12808 <_vfprintf_r+0x1900>
   1367c:	00600313          	li	t1,6
   13680:	dbdfd06f          	j	1143c <_vfprintf_r+0x534>
   13684:	00030463          	beqz	t1,1368c <_vfprintf_r+0x2784>
   13688:	db5fd06f          	j	1143c <_vfprintf_r+0x534>
   1368c:	00100313          	li	t1,1
   13690:	dadfd06f          	j	1143c <_vfprintf_r+0x534>
   13694:	0d610793          	addi	a5,sp,214
   13698:	00071863          	bnez	a4,136a8 <_vfprintf_r+0x27a0>
   1369c:	03000793          	li	a5,48
   136a0:	0cf10b23          	sb	a5,214(sp)
   136a4:	0d710793          	addi	a5,sp,215
   136a8:	1b010713          	addi	a4,sp,432
   136ac:	030a8a93          	addi	s5,s5,48
   136b0:	40e78733          	sub	a4,a5,a4
   136b4:	01578023          	sb	s5,0(a5)
   136b8:	0dd70793          	addi	a5,a4,221
   136bc:	02f12c23          	sw	a5,56(sp)
   136c0:	f59fd06f          	j	11618 <_vfprintf_r+0x710>
   136c4:	0b010a93          	addi	s5,sp,176
   136c8:	000a8513          	mv	a0,s5
   136cc:	04612a23          	sw	t1,84(sp)
   136d0:	0bc12823          	sw	t3,176(sp)
   136d4:	0bd12a23          	sw	t4,180(sp)
   136d8:	0be12c23          	sw	t5,184(sp)
   136dc:	0b712e23          	sw	s7,188(sp)
   136e0:	034120ef          	jal	ra,25714 <__trunctfdf2>
   136e4:	0cc10613          	addi	a2,sp,204
   136e8:	76d050ef          	jal	ra,19654 <frexp>
   136ec:	00058613          	mv	a2,a1
   136f0:	00050593          	mv	a1,a0
   136f4:	000a8513          	mv	a0,s5
   136f8:	629110ef          	jal	ra,25520 <__extenddftf2>
   136fc:	0b012783          	lw	a5,176(sp)
   13700:	0a010c93          	addi	s9,sp,160
   13704:	09010913          	addi	s2,sp,144
   13708:	08f12823          	sw	a5,144(sp)
   1370c:	0b412783          	lw	a5,180(sp)
   13710:	08010613          	addi	a2,sp,128
   13714:	00090593          	mv	a1,s2
   13718:	08f12a23          	sw	a5,148(sp)
   1371c:	0b812783          	lw	a5,184(sp)
   13720:	000c8513          	mv	a0,s9
   13724:	04c12023          	sw	a2,64(sp)
   13728:	08f12c23          	sw	a5,152(sp)
   1372c:	0bc12783          	lw	a5,188(sp)
   13730:	08012023          	sw	zero,128(sp)
   13734:	08012223          	sw	zero,132(sp)
   13738:	08f12e23          	sw	a5,156(sp)
   1373c:	3ffc07b7          	lui	a5,0x3ffc0
   13740:	08f12623          	sw	a5,140(sp)
   13744:	08012423          	sw	zero,136(sp)
   13748:	2800f0ef          	jal	ra,229c8 <__multf3>
   1374c:	0a012683          	lw	a3,160(sp)
   13750:	0a412e03          	lw	t3,164(sp)
   13754:	0a812e83          	lw	t4,168(sp)
   13758:	0ac12f03          	lw	t5,172(sp)
   1375c:	000c8593          	mv	a1,s9
   13760:	000a8513          	mv	a0,s5
   13764:	0ad12823          	sw	a3,176(sp)
   13768:	04d12623          	sw	a3,76(sp)
   1376c:	0bc12a23          	sw	t3,180(sp)
   13770:	03c12223          	sw	t3,36(sp)
   13774:	0bd12c23          	sw	t4,184(sp)
   13778:	03d12023          	sw	t4,32(sp)
   1377c:	0be12e23          	sw	t5,188(sp)
   13780:	01e12e23          	sw	t5,28(sp)
   13784:	0a012023          	sw	zero,160(sp)
   13788:	0a012223          	sw	zero,164(sp)
   1378c:	0a012423          	sw	zero,168(sp)
   13790:	0a012623          	sw	zero,172(sp)
   13794:	6e10e0ef          	jal	ra,22674 <__eqtf2>
   13798:	01c12f03          	lw	t5,28(sp)
   1379c:	02012e83          	lw	t4,32(sp)
   137a0:	02412e03          	lw	t3,36(sp)
   137a4:	04c12683          	lw	a3,76(sp)
   137a8:	05412303          	lw	t1,84(sp)
   137ac:	00051663          	bnez	a0,137b8 <_vfprintf_r+0x28b0>
   137b0:	00100793          	li	a5,1
   137b4:	0cf12623          	sw	a5,204(sp)
   137b8:	000267b7          	lui	a5,0x26
   137bc:	cb078793          	addi	a5,a5,-848 # 25cb0 <__clzsi2+0x168>
   137c0:	02f12223          	sw	a5,36(sp)
   137c4:	fb8ff06f          	j	12f7c <_vfprintf_r+0x2074>
   137c8:	06700493          	li	s1,103
   137cc:	03c12603          	lw	a2,60(sp)
   137d0:	0ff00713          	li	a4,255
   137d4:	00064783          	lbu	a5,0(a2)
   137d8:	12e78263          	beq	a5,a4,138fc <_vfprintf_r+0x29f4>
   137dc:	01c12683          	lw	a3,28(sp)
   137e0:	00000513          	li	a0,0
   137e4:	00000593          	li	a1,0
   137e8:	00d7de63          	bge	a5,a3,13804 <_vfprintf_r+0x28fc>
   137ec:	40f686b3          	sub	a3,a3,a5
   137f0:	00164783          	lbu	a5,1(a2)
   137f4:	04078463          	beqz	a5,1383c <_vfprintf_r+0x2934>
   137f8:	00158593          	addi	a1,a1,1
   137fc:	00160613          	addi	a2,a2,1
   13800:	fee794e3          	bne	a5,a4,137e8 <_vfprintf_r+0x28e0>
   13804:	00d12e23          	sw	a3,28(sp)
   13808:	02c12e23          	sw	a2,60(sp)
   1380c:	02b12223          	sw	a1,36(sp)
   13810:	02a12423          	sw	a0,40(sp)
   13814:	02412783          	lw	a5,36(sp)
   13818:	02812703          	lw	a4,40(sp)
   1381c:	04412583          	lw	a1,68(sp)
   13820:	00e78533          	add	a0,a5,a4
   13824:	24c120ef          	jal	ra,25a70 <__mulsi3>
   13828:	01950cb3          	add	s9,a0,s9
   1382c:	fffcca93          	not	s5,s9
   13830:	41fada93          	srai	s5,s5,0x1f
   13834:	015cfab3          	and	s5,s9,s5
   13838:	e25fd06f          	j	1165c <_vfprintf_r+0x754>
   1383c:	00064783          	lbu	a5,0(a2)
   13840:	00150513          	addi	a0,a0,1
   13844:	fbdff06f          	j	13800 <_vfprintf_r+0x28f8>
   13848:	02c12783          	lw	a5,44(sp)
   1384c:	06600493          	li	s1,102
   13850:	00f70cb3          	add	s9,a4,a5
   13854:	006c8cb3          	add	s9,s9,t1
   13858:	c31ff06f          	j	13488 <_vfprintf_r+0x2580>
   1385c:	40fc8cb3          	sub	s9,s9,a5
   13860:	001c8c93          	addi	s9,s9,1
   13864:	fffcca93          	not	s5,s9
   13868:	41fada93          	srai	s5,s5,0x1f
   1386c:	015cfab3          	and	s5,s9,s5
   13870:	9f5ff06f          	j	13264 <_vfprintf_r+0x235c>
   13874:	05012783          	lw	a5,80(sp)
   13878:	0017f793          	andi	a5,a5,1
   1387c:	00079463          	bnez	a5,13884 <_vfprintf_r+0x297c>
   13880:	db9fd06f          	j	11638 <_vfprintf_r+0x730>
   13884:	dadfd06f          	j	11630 <_vfprintf_r+0x728>
   13888:	000d8693          	mv	a3,s11
   1388c:	c31fe06f          	j	124bc <_vfprintf_r+0x15b4>
   13890:	00079a63          	bnez	a5,138a4 <_vfprintf_r+0x299c>
   13894:	00100a93          	li	s5,1
   13898:	06600493          	li	s1,102
   1389c:	00100c93          	li	s9,1
   138a0:	9c5ff06f          	j	13264 <_vfprintf_r+0x235c>
   138a4:	02c12783          	lw	a5,44(sp)
   138a8:	06600493          	li	s1,102
   138ac:	00178c93          	addi	s9,a5,1
   138b0:	006c8cb3          	add	s9,s9,t1
   138b4:	fffcca93          	not	s5,s9
   138b8:	41fada93          	srai	s5,s5,0x1f
   138bc:	015cfab3          	and	s5,s9,s5
   138c0:	9a5ff06f          	j	13264 <_vfprintf_r+0x235c>
   138c4:	01412783          	lw	a5,20(sp)
   138c8:	0007ac83          	lw	s9,0(a5)
   138cc:	00478793          	addi	a5,a5,4
   138d0:	000cd463          	bgez	s9,138d8 <_vfprintf_r+0x29d0>
   138d4:	fff00c93          	li	s9,-1
   138d8:	00144483          	lbu	s1,1(s0)
   138dc:	00f12a23          	sw	a5,20(sp)
   138e0:	00070413          	mv	s0,a4
   138e4:	fe0fd06f          	j	110c4 <_vfprintf_r+0x1bc>
   138e8:	00200793          	li	a5,2
   138ec:	02f12c23          	sw	a5,56(sp)
   138f0:	d29fd06f          	j	11618 <_vfprintf_r+0x710>
   138f4:	00030913          	mv	s2,t1
   138f8:	c99ff06f          	j	13590 <_vfprintf_r+0x2688>
   138fc:	02012423          	sw	zero,40(sp)
   13900:	02012223          	sw	zero,36(sp)
   13904:	f11ff06f          	j	13814 <_vfprintf_r+0x290c>
   13908:	00cc5783          	lhu	a5,12(s8)
   1390c:	0407e793          	ori	a5,a5,64
   13910:	00fc1623          	sh	a5,12(s8)
   13914:	955fd06f          	j	11268 <_vfprintf_r+0x360>

00013918 <vfprintf>:
   13918:	00050793          	mv	a5,a0
   1391c:	1c01a503          	lw	a0,448(gp) # 27a80 <_impure_ptr>
   13920:	00060693          	mv	a3,a2
   13924:	00058613          	mv	a2,a1
   13928:	00078593          	mv	a1,a5
   1392c:	ddcfd06f          	j	10f08 <_vfprintf_r>

00013930 <__sbprintf>:
   13930:	00c5d783          	lhu	a5,12(a1)
   13934:	0645ae03          	lw	t3,100(a1)
   13938:	00e5d303          	lhu	t1,14(a1)
   1393c:	01c5a883          	lw	a7,28(a1)
   13940:	0245a803          	lw	a6,36(a1)
   13944:	b8010113          	addi	sp,sp,-1152
   13948:	ffd7f793          	andi	a5,a5,-3
   1394c:	40000713          	li	a4,1024
   13950:	46812c23          	sw	s0,1144(sp)
   13954:	00f11a23          	sh	a5,20(sp)
   13958:	00058413          	mv	s0,a1
   1395c:	07010793          	addi	a5,sp,112
   13960:	00810593          	addi	a1,sp,8
   13964:	46912a23          	sw	s1,1140(sp)
   13968:	47212823          	sw	s2,1136(sp)
   1396c:	46112e23          	sw	ra,1148(sp)
   13970:	00050913          	mv	s2,a0
   13974:	07c12623          	sw	t3,108(sp)
   13978:	00611b23          	sh	t1,22(sp)
   1397c:	03112223          	sw	a7,36(sp)
   13980:	03012623          	sw	a6,44(sp)
   13984:	00f12423          	sw	a5,8(sp)
   13988:	00f12c23          	sw	a5,24(sp)
   1398c:	00e12823          	sw	a4,16(sp)
   13990:	00e12e23          	sw	a4,28(sp)
   13994:	02012023          	sw	zero,32(sp)
   13998:	d70fd0ef          	jal	ra,10f08 <_vfprintf_r>
   1399c:	00050493          	mv	s1,a0
   139a0:	02055c63          	bgez	a0,139d8 <__sbprintf+0xa8>
   139a4:	01415783          	lhu	a5,20(sp)
   139a8:	0407f793          	andi	a5,a5,64
   139ac:	00078863          	beqz	a5,139bc <__sbprintf+0x8c>
   139b0:	00c45783          	lhu	a5,12(s0)
   139b4:	0407e793          	ori	a5,a5,64
   139b8:	00f41623          	sh	a5,12(s0)
   139bc:	47c12083          	lw	ra,1148(sp)
   139c0:	47812403          	lw	s0,1144(sp)
   139c4:	47012903          	lw	s2,1136(sp)
   139c8:	00048513          	mv	a0,s1
   139cc:	47412483          	lw	s1,1140(sp)
   139d0:	48010113          	addi	sp,sp,1152
   139d4:	00008067          	ret
   139d8:	00810593          	addi	a1,sp,8
   139dc:	00090513          	mv	a0,s2
   139e0:	698000ef          	jal	ra,14078 <_fflush_r>
   139e4:	fc0500e3          	beqz	a0,139a4 <__sbprintf+0x74>
   139e8:	fff00493          	li	s1,-1
   139ec:	fb9ff06f          	j	139a4 <__sbprintf+0x74>

000139f0 <__swbuf_r>:
   139f0:	fe010113          	addi	sp,sp,-32
   139f4:	00812c23          	sw	s0,24(sp)
   139f8:	00912a23          	sw	s1,20(sp)
   139fc:	01212823          	sw	s2,16(sp)
   13a00:	00112e23          	sw	ra,28(sp)
   13a04:	01312623          	sw	s3,12(sp)
   13a08:	00050913          	mv	s2,a0
   13a0c:	00058493          	mv	s1,a1
   13a10:	00060413          	mv	s0,a2
   13a14:	00050663          	beqz	a0,13a20 <__swbuf_r+0x30>
   13a18:	03852783          	lw	a5,56(a0)
   13a1c:	14078a63          	beqz	a5,13b70 <__swbuf_r+0x180>
   13a20:	00c41703          	lh	a4,12(s0)
   13a24:	01842683          	lw	a3,24(s0)
   13a28:	00877793          	andi	a5,a4,8
   13a2c:	00d42423          	sw	a3,8(s0)
   13a30:	01071693          	slli	a3,a4,0x10
   13a34:	0106d693          	srli	a3,a3,0x10
   13a38:	08078463          	beqz	a5,13ac0 <__swbuf_r+0xd0>
   13a3c:	01042783          	lw	a5,16(s0)
   13a40:	08078063          	beqz	a5,13ac0 <__swbuf_r+0xd0>
   13a44:	00002637          	lui	a2,0x2
   13a48:	00c6f6b3          	and	a3,a3,a2
   13a4c:	0ff4f993          	andi	s3,s1,255
   13a50:	0ff4f493          	andi	s1,s1,255
   13a54:	0a068063          	beqz	a3,13af4 <__swbuf_r+0x104>
   13a58:	00042703          	lw	a4,0(s0)
   13a5c:	01442683          	lw	a3,20(s0)
   13a60:	40f707b3          	sub	a5,a4,a5
   13a64:	0ad7de63          	bge	a5,a3,13b20 <__swbuf_r+0x130>
   13a68:	00842683          	lw	a3,8(s0)
   13a6c:	00170613          	addi	a2,a4,1
   13a70:	00c42023          	sw	a2,0(s0)
   13a74:	fff68693          	addi	a3,a3,-1
   13a78:	00d42423          	sw	a3,8(s0)
   13a7c:	01370023          	sb	s3,0(a4)
   13a80:	01442703          	lw	a4,20(s0)
   13a84:	00178793          	addi	a5,a5,1
   13a88:	0cf70863          	beq	a4,a5,13b58 <__swbuf_r+0x168>
   13a8c:	00c45783          	lhu	a5,12(s0)
   13a90:	0017f793          	andi	a5,a5,1
   13a94:	00078663          	beqz	a5,13aa0 <__swbuf_r+0xb0>
   13a98:	00a00793          	li	a5,10
   13a9c:	0af48e63          	beq	s1,a5,13b58 <__swbuf_r+0x168>
   13aa0:	01c12083          	lw	ra,28(sp)
   13aa4:	01812403          	lw	s0,24(sp)
   13aa8:	01012903          	lw	s2,16(sp)
   13aac:	00c12983          	lw	s3,12(sp)
   13ab0:	00048513          	mv	a0,s1
   13ab4:	01412483          	lw	s1,20(sp)
   13ab8:	02010113          	addi	sp,sp,32
   13abc:	00008067          	ret
   13ac0:	00040593          	mv	a1,s0
   13ac4:	00090513          	mv	a0,s2
   13ac8:	0c4000ef          	jal	ra,13b8c <__swsetup_r>
   13acc:	08051e63          	bnez	a0,13b68 <__swbuf_r+0x178>
   13ad0:	00c41703          	lh	a4,12(s0)
   13ad4:	00002637          	lui	a2,0x2
   13ad8:	0ff4f993          	andi	s3,s1,255
   13adc:	01071693          	slli	a3,a4,0x10
   13ae0:	0106d693          	srli	a3,a3,0x10
   13ae4:	00c6f6b3          	and	a3,a3,a2
   13ae8:	01042783          	lw	a5,16(s0)
   13aec:	0ff4f493          	andi	s1,s1,255
   13af0:	f60694e3          	bnez	a3,13a58 <__swbuf_r+0x68>
   13af4:	06442683          	lw	a3,100(s0)
   13af8:	00c76733          	or	a4,a4,a2
   13afc:	ffffe637          	lui	a2,0xffffe
   13b00:	fff60613          	addi	a2,a2,-1 # ffffdfff <__BSS_END__+0xfffd6517>
   13b04:	00c6f6b3          	and	a3,a3,a2
   13b08:	00e41623          	sh	a4,12(s0)
   13b0c:	00042703          	lw	a4,0(s0)
   13b10:	06d42223          	sw	a3,100(s0)
   13b14:	01442683          	lw	a3,20(s0)
   13b18:	40f707b3          	sub	a5,a4,a5
   13b1c:	f4d7c6e3          	blt	a5,a3,13a68 <__swbuf_r+0x78>
   13b20:	00040593          	mv	a1,s0
   13b24:	00090513          	mv	a0,s2
   13b28:	550000ef          	jal	ra,14078 <_fflush_r>
   13b2c:	02051e63          	bnez	a0,13b68 <__swbuf_r+0x178>
   13b30:	00042703          	lw	a4,0(s0)
   13b34:	00842683          	lw	a3,8(s0)
   13b38:	00100793          	li	a5,1
   13b3c:	00170613          	addi	a2,a4,1
   13b40:	fff68693          	addi	a3,a3,-1
   13b44:	00c42023          	sw	a2,0(s0)
   13b48:	00d42423          	sw	a3,8(s0)
   13b4c:	01370023          	sb	s3,0(a4)
   13b50:	01442703          	lw	a4,20(s0)
   13b54:	f2f71ce3          	bne	a4,a5,13a8c <__swbuf_r+0x9c>
   13b58:	00040593          	mv	a1,s0
   13b5c:	00090513          	mv	a0,s2
   13b60:	518000ef          	jal	ra,14078 <_fflush_r>
   13b64:	f2050ee3          	beqz	a0,13aa0 <__swbuf_r+0xb0>
   13b68:	fff00493          	li	s1,-1
   13b6c:	f35ff06f          	j	13aa0 <__swbuf_r+0xb0>
   13b70:	141000ef          	jal	ra,144b0 <__sinit>
   13b74:	eadff06f          	j	13a20 <__swbuf_r+0x30>

00013b78 <__swbuf>:
   13b78:	00050793          	mv	a5,a0
   13b7c:	1c01a503          	lw	a0,448(gp) # 27a80 <_impure_ptr>
   13b80:	00058613          	mv	a2,a1
   13b84:	00078593          	mv	a1,a5
   13b88:	e69ff06f          	j	139f0 <__swbuf_r>

00013b8c <__swsetup_r>:
   13b8c:	1c01a783          	lw	a5,448(gp) # 27a80 <_impure_ptr>
   13b90:	ff010113          	addi	sp,sp,-16
   13b94:	00812423          	sw	s0,8(sp)
   13b98:	00912223          	sw	s1,4(sp)
   13b9c:	00112623          	sw	ra,12(sp)
   13ba0:	00050493          	mv	s1,a0
   13ba4:	00058413          	mv	s0,a1
   13ba8:	00078663          	beqz	a5,13bb4 <__swsetup_r+0x28>
   13bac:	0387a703          	lw	a4,56(a5)
   13bb0:	08070463          	beqz	a4,13c38 <__swsetup_r+0xac>
   13bb4:	00c41703          	lh	a4,12(s0)
   13bb8:	01071793          	slli	a5,a4,0x10
   13bbc:	00877693          	andi	a3,a4,8
   13bc0:	0107d793          	srli	a5,a5,0x10
   13bc4:	08068863          	beqz	a3,13c54 <__swsetup_r+0xc8>
   13bc8:	01042683          	lw	a3,16(s0)
   13bcc:	0a068863          	beqz	a3,13c7c <__swsetup_r+0xf0>
   13bd0:	0017f613          	andi	a2,a5,1
   13bd4:	02060863          	beqz	a2,13c04 <__swsetup_r+0x78>
   13bd8:	01442603          	lw	a2,20(s0)
   13bdc:	00042423          	sw	zero,8(s0)
   13be0:	00000513          	li	a0,0
   13be4:	40c00633          	neg	a2,a2
   13be8:	00c42c23          	sw	a2,24(s0)
   13bec:	02068a63          	beqz	a3,13c20 <__swsetup_r+0x94>
   13bf0:	00c12083          	lw	ra,12(sp)
   13bf4:	00812403          	lw	s0,8(sp)
   13bf8:	00412483          	lw	s1,4(sp)
   13bfc:	01010113          	addi	sp,sp,16
   13c00:	00008067          	ret
   13c04:	0027f613          	andi	a2,a5,2
   13c08:	00000593          	li	a1,0
   13c0c:	00061463          	bnez	a2,13c14 <__swsetup_r+0x88>
   13c10:	01442583          	lw	a1,20(s0)
   13c14:	00b42423          	sw	a1,8(s0)
   13c18:	00000513          	li	a0,0
   13c1c:	fc069ae3          	bnez	a3,13bf0 <__swsetup_r+0x64>
   13c20:	0807f793          	andi	a5,a5,128
   13c24:	fc0786e3          	beqz	a5,13bf0 <__swsetup_r+0x64>
   13c28:	04076713          	ori	a4,a4,64
   13c2c:	00e41623          	sh	a4,12(s0)
   13c30:	fff00513          	li	a0,-1
   13c34:	fbdff06f          	j	13bf0 <__swsetup_r+0x64>
   13c38:	00078513          	mv	a0,a5
   13c3c:	075000ef          	jal	ra,144b0 <__sinit>
   13c40:	00c41703          	lh	a4,12(s0)
   13c44:	01071793          	slli	a5,a4,0x10
   13c48:	00877693          	andi	a3,a4,8
   13c4c:	0107d793          	srli	a5,a5,0x10
   13c50:	f6069ce3          	bnez	a3,13bc8 <__swsetup_r+0x3c>
   13c54:	0107f693          	andi	a3,a5,16
   13c58:	08068263          	beqz	a3,13cdc <__swsetup_r+0x150>
   13c5c:	0047f793          	andi	a5,a5,4
   13c60:	04079463          	bnez	a5,13ca8 <__swsetup_r+0x11c>
   13c64:	01042683          	lw	a3,16(s0)
   13c68:	00876713          	ori	a4,a4,8
   13c6c:	01071793          	slli	a5,a4,0x10
   13c70:	00e41623          	sh	a4,12(s0)
   13c74:	0107d793          	srli	a5,a5,0x10
   13c78:	f4069ce3          	bnez	a3,13bd0 <__swsetup_r+0x44>
   13c7c:	2807f613          	andi	a2,a5,640
   13c80:	20000593          	li	a1,512
   13c84:	f4b606e3          	beq	a2,a1,13bd0 <__swsetup_r+0x44>
   13c88:	00040593          	mv	a1,s0
   13c8c:	00048513          	mv	a0,s1
   13c90:	391030ef          	jal	ra,17820 <__smakebuf_r>
   13c94:	00c41703          	lh	a4,12(s0)
   13c98:	01042683          	lw	a3,16(s0)
   13c9c:	01071793          	slli	a5,a4,0x10
   13ca0:	0107d793          	srli	a5,a5,0x10
   13ca4:	f2dff06f          	j	13bd0 <__swsetup_r+0x44>
   13ca8:	03042583          	lw	a1,48(s0)
   13cac:	00058e63          	beqz	a1,13cc8 <__swsetup_r+0x13c>
   13cb0:	04040793          	addi	a5,s0,64
   13cb4:	00f58863          	beq	a1,a5,13cc4 <__swsetup_r+0x138>
   13cb8:	00048513          	mv	a0,s1
   13cbc:	1c1000ef          	jal	ra,1467c <_free_r>
   13cc0:	00c41703          	lh	a4,12(s0)
   13cc4:	02042823          	sw	zero,48(s0)
   13cc8:	01042683          	lw	a3,16(s0)
   13ccc:	fdb77713          	andi	a4,a4,-37
   13cd0:	00042223          	sw	zero,4(s0)
   13cd4:	00d42023          	sw	a3,0(s0)
   13cd8:	f91ff06f          	j	13c68 <__swsetup_r+0xdc>
   13cdc:	00900793          	li	a5,9
   13ce0:	00f4a023          	sw	a5,0(s1)
   13ce4:	04076713          	ori	a4,a4,64
   13ce8:	00e41623          	sh	a4,12(s0)
   13cec:	fff00513          	li	a0,-1
   13cf0:	f01ff06f          	j	13bf0 <__swsetup_r+0x64>

00013cf4 <__call_exitprocs>:
   13cf4:	fd010113          	addi	sp,sp,-48
   13cf8:	01412c23          	sw	s4,24(sp)
   13cfc:	1b81aa03          	lw	s4,440(gp) # 27a78 <_global_impure_ptr>
   13d00:	03212023          	sw	s2,32(sp)
   13d04:	02112623          	sw	ra,44(sp)
   13d08:	148a2903          	lw	s2,328(s4)
   13d0c:	02812423          	sw	s0,40(sp)
   13d10:	02912223          	sw	s1,36(sp)
   13d14:	01312e23          	sw	s3,28(sp)
   13d18:	01512a23          	sw	s5,20(sp)
   13d1c:	01612823          	sw	s6,16(sp)
   13d20:	01712623          	sw	s7,12(sp)
   13d24:	01812423          	sw	s8,8(sp)
   13d28:	04090063          	beqz	s2,13d68 <__call_exitprocs+0x74>
   13d2c:	00050b13          	mv	s6,a0
   13d30:	00058b93          	mv	s7,a1
   13d34:	00100a93          	li	s5,1
   13d38:	fff00993          	li	s3,-1
   13d3c:	00492483          	lw	s1,4(s2) # 3ffe0004 <__BSS_END__+0x3ffb851c>
   13d40:	fff48413          	addi	s0,s1,-1
   13d44:	02044263          	bltz	s0,13d68 <__call_exitprocs+0x74>
   13d48:	00249493          	slli	s1,s1,0x2
   13d4c:	009904b3          	add	s1,s2,s1
   13d50:	040b8463          	beqz	s7,13d98 <__call_exitprocs+0xa4>
   13d54:	1044a783          	lw	a5,260(s1)
   13d58:	05778063          	beq	a5,s7,13d98 <__call_exitprocs+0xa4>
   13d5c:	fff40413          	addi	s0,s0,-1
   13d60:	ffc48493          	addi	s1,s1,-4
   13d64:	ff3416e3          	bne	s0,s3,13d50 <__call_exitprocs+0x5c>
   13d68:	02c12083          	lw	ra,44(sp)
   13d6c:	02812403          	lw	s0,40(sp)
   13d70:	02412483          	lw	s1,36(sp)
   13d74:	02012903          	lw	s2,32(sp)
   13d78:	01c12983          	lw	s3,28(sp)
   13d7c:	01812a03          	lw	s4,24(sp)
   13d80:	01412a83          	lw	s5,20(sp)
   13d84:	01012b03          	lw	s6,16(sp)
   13d88:	00c12b83          	lw	s7,12(sp)
   13d8c:	00812c03          	lw	s8,8(sp)
   13d90:	03010113          	addi	sp,sp,48
   13d94:	00008067          	ret
   13d98:	00492783          	lw	a5,4(s2)
   13d9c:	0044a683          	lw	a3,4(s1)
   13da0:	fff78793          	addi	a5,a5,-1
   13da4:	04878e63          	beq	a5,s0,13e00 <__call_exitprocs+0x10c>
   13da8:	0004a223          	sw	zero,4(s1)
   13dac:	fa0688e3          	beqz	a3,13d5c <__call_exitprocs+0x68>
   13db0:	18892783          	lw	a5,392(s2)
   13db4:	008a9733          	sll	a4,s5,s0
   13db8:	00492c03          	lw	s8,4(s2)
   13dbc:	00f777b3          	and	a5,a4,a5
   13dc0:	02079263          	bnez	a5,13de4 <__call_exitprocs+0xf0>
   13dc4:	000680e7          	jalr	a3
   13dc8:	00492703          	lw	a4,4(s2)
   13dcc:	148a2783          	lw	a5,328(s4)
   13dd0:	01871463          	bne	a4,s8,13dd8 <__call_exitprocs+0xe4>
   13dd4:	f92784e3          	beq	a5,s2,13d5c <__call_exitprocs+0x68>
   13dd8:	f80788e3          	beqz	a5,13d68 <__call_exitprocs+0x74>
   13ddc:	00078913          	mv	s2,a5
   13de0:	f5dff06f          	j	13d3c <__call_exitprocs+0x48>
   13de4:	18c92783          	lw	a5,396(s2)
   13de8:	0844a583          	lw	a1,132(s1)
   13dec:	00f77733          	and	a4,a4,a5
   13df0:	00071c63          	bnez	a4,13e08 <__call_exitprocs+0x114>
   13df4:	000b0513          	mv	a0,s6
   13df8:	000680e7          	jalr	a3
   13dfc:	fcdff06f          	j	13dc8 <__call_exitprocs+0xd4>
   13e00:	00892223          	sw	s0,4(s2)
   13e04:	fa9ff06f          	j	13dac <__call_exitprocs+0xb8>
   13e08:	00058513          	mv	a0,a1
   13e0c:	000680e7          	jalr	a3
   13e10:	fb9ff06f          	j	13dc8 <__call_exitprocs+0xd4>

00013e14 <__sflush_r>:
   13e14:	00c59783          	lh	a5,12(a1)
   13e18:	fe010113          	addi	sp,sp,-32
   13e1c:	00812c23          	sw	s0,24(sp)
   13e20:	01312623          	sw	s3,12(sp)
   13e24:	00112e23          	sw	ra,28(sp)
   13e28:	00912a23          	sw	s1,20(sp)
   13e2c:	01212823          	sw	s2,16(sp)
   13e30:	0087f693          	andi	a3,a5,8
   13e34:	00058413          	mv	s0,a1
   13e38:	00050993          	mv	s3,a0
   13e3c:	10069c63          	bnez	a3,13f54 <__sflush_r+0x140>
   13e40:	00001737          	lui	a4,0x1
   13e44:	80070713          	addi	a4,a4,-2048 # 800 <register_fini-0xf874>
   13e48:	0045a683          	lw	a3,4(a1)
   13e4c:	00e7e7b3          	or	a5,a5,a4
   13e50:	00f59623          	sh	a5,12(a1)
   13e54:	18d05663          	blez	a3,13fe0 <__sflush_r+0x1cc>
   13e58:	02842703          	lw	a4,40(s0)
   13e5c:	0c070c63          	beqz	a4,13f34 <__sflush_r+0x120>
   13e60:	01079793          	slli	a5,a5,0x10
   13e64:	0107d793          	srli	a5,a5,0x10
   13e68:	000016b7          	lui	a3,0x1
   13e6c:	0009a483          	lw	s1,0(s3)
   13e70:	00d7f6b3          	and	a3,a5,a3
   13e74:	0009a023          	sw	zero,0(s3)
   13e78:	01c42583          	lw	a1,28(s0)
   13e7c:	16069863          	bnez	a3,13fec <__sflush_r+0x1d8>
   13e80:	00100693          	li	a3,1
   13e84:	00000613          	li	a2,0
   13e88:	00098513          	mv	a0,s3
   13e8c:	000700e7          	jalr	a4
   13e90:	fff00793          	li	a5,-1
   13e94:	18f50e63          	beq	a0,a5,14030 <__sflush_r+0x21c>
   13e98:	00c45783          	lhu	a5,12(s0)
   13e9c:	02842703          	lw	a4,40(s0)
   13ea0:	01c42583          	lw	a1,28(s0)
   13ea4:	0047f793          	andi	a5,a5,4
   13ea8:	00078e63          	beqz	a5,13ec4 <__sflush_r+0xb0>
   13eac:	00442683          	lw	a3,4(s0)
   13eb0:	03042783          	lw	a5,48(s0)
   13eb4:	40d50533          	sub	a0,a0,a3
   13eb8:	00078663          	beqz	a5,13ec4 <__sflush_r+0xb0>
   13ebc:	03c42783          	lw	a5,60(s0)
   13ec0:	40f50533          	sub	a0,a0,a5
   13ec4:	00050613          	mv	a2,a0
   13ec8:	00000693          	li	a3,0
   13ecc:	00098513          	mv	a0,s3
   13ed0:	000700e7          	jalr	a4
   13ed4:	fff00793          	li	a5,-1
   13ed8:	10f51e63          	bne	a0,a5,13ff4 <__sflush_r+0x1e0>
   13edc:	0009a703          	lw	a4,0(s3)
   13ee0:	00c41783          	lh	a5,12(s0)
   13ee4:	16070a63          	beqz	a4,14058 <__sflush_r+0x244>
   13ee8:	01d00693          	li	a3,29
   13eec:	00d70663          	beq	a4,a3,13ef8 <__sflush_r+0xe4>
   13ef0:	01600693          	li	a3,22
   13ef4:	0cd71463          	bne	a4,a3,13fbc <__sflush_r+0x1a8>
   13ef8:	01042683          	lw	a3,16(s0)
   13efc:	fffff737          	lui	a4,0xfffff
   13f00:	7ff70713          	addi	a4,a4,2047 # fffff7ff <__BSS_END__+0xfffd7d17>
   13f04:	00e7f7b3          	and	a5,a5,a4
   13f08:	00f41623          	sh	a5,12(s0)
   13f0c:	00042223          	sw	zero,4(s0)
   13f10:	00d42023          	sw	a3,0(s0)
   13f14:	03042583          	lw	a1,48(s0)
   13f18:	0099a023          	sw	s1,0(s3)
   13f1c:	00058c63          	beqz	a1,13f34 <__sflush_r+0x120>
   13f20:	04040793          	addi	a5,s0,64
   13f24:	00f58663          	beq	a1,a5,13f30 <__sflush_r+0x11c>
   13f28:	00098513          	mv	a0,s3
   13f2c:	750000ef          	jal	ra,1467c <_free_r>
   13f30:	02042823          	sw	zero,48(s0)
   13f34:	00000513          	li	a0,0
   13f38:	01c12083          	lw	ra,28(sp)
   13f3c:	01812403          	lw	s0,24(sp)
   13f40:	01412483          	lw	s1,20(sp)
   13f44:	01012903          	lw	s2,16(sp)
   13f48:	00c12983          	lw	s3,12(sp)
   13f4c:	02010113          	addi	sp,sp,32
   13f50:	00008067          	ret
   13f54:	0105a903          	lw	s2,16(a1)
   13f58:	fc090ee3          	beqz	s2,13f34 <__sflush_r+0x120>
   13f5c:	0005a483          	lw	s1,0(a1)
   13f60:	01079713          	slli	a4,a5,0x10
   13f64:	01075713          	srli	a4,a4,0x10
   13f68:	00377713          	andi	a4,a4,3
   13f6c:	0125a023          	sw	s2,0(a1)
   13f70:	412484b3          	sub	s1,s1,s2
   13f74:	00000793          	li	a5,0
   13f78:	00071463          	bnez	a4,13f80 <__sflush_r+0x16c>
   13f7c:	0145a783          	lw	a5,20(a1)
   13f80:	00f42423          	sw	a5,8(s0)
   13f84:	00904863          	bgtz	s1,13f94 <__sflush_r+0x180>
   13f88:	fadff06f          	j	13f34 <__sflush_r+0x120>
   13f8c:	00a90933          	add	s2,s2,a0
   13f90:	fa9052e3          	blez	s1,13f34 <__sflush_r+0x120>
   13f94:	02442783          	lw	a5,36(s0)
   13f98:	01c42583          	lw	a1,28(s0)
   13f9c:	00048693          	mv	a3,s1
   13fa0:	00090613          	mv	a2,s2
   13fa4:	00098513          	mv	a0,s3
   13fa8:	000780e7          	jalr	a5
   13fac:	40a484b3          	sub	s1,s1,a0
   13fb0:	fca04ee3          	bgtz	a0,13f8c <__sflush_r+0x178>
   13fb4:	00c45783          	lhu	a5,12(s0)
   13fb8:	fff00513          	li	a0,-1
   13fbc:	0407e793          	ori	a5,a5,64
   13fc0:	01c12083          	lw	ra,28(sp)
   13fc4:	00f41623          	sh	a5,12(s0)
   13fc8:	01812403          	lw	s0,24(sp)
   13fcc:	01412483          	lw	s1,20(sp)
   13fd0:	01012903          	lw	s2,16(sp)
   13fd4:	00c12983          	lw	s3,12(sp)
   13fd8:	02010113          	addi	sp,sp,32
   13fdc:	00008067          	ret
   13fe0:	03c5a703          	lw	a4,60(a1)
   13fe4:	e6e04ae3          	bgtz	a4,13e58 <__sflush_r+0x44>
   13fe8:	f4dff06f          	j	13f34 <__sflush_r+0x120>
   13fec:	05042503          	lw	a0,80(s0)
   13ff0:	eb5ff06f          	j	13ea4 <__sflush_r+0x90>
   13ff4:	00c45783          	lhu	a5,12(s0)
   13ff8:	fffff737          	lui	a4,0xfffff
   13ffc:	7ff70713          	addi	a4,a4,2047 # fffff7ff <__BSS_END__+0xfffd7d17>
   14000:	00e7f7b3          	and	a5,a5,a4
   14004:	01042683          	lw	a3,16(s0)
   14008:	01079793          	slli	a5,a5,0x10
   1400c:	4107d793          	srai	a5,a5,0x10
   14010:	00c7d713          	srli	a4,a5,0xc
   14014:	00f41623          	sh	a5,12(s0)
   14018:	00042223          	sw	zero,4(s0)
   1401c:	00d42023          	sw	a3,0(s0)
   14020:	00177793          	andi	a5,a4,1
   14024:	ee0788e3          	beqz	a5,13f14 <__sflush_r+0x100>
   14028:	04a42823          	sw	a0,80(s0)
   1402c:	ee9ff06f          	j	13f14 <__sflush_r+0x100>
   14030:	0009a783          	lw	a5,0(s3)
   14034:	e60782e3          	beqz	a5,13e98 <__sflush_r+0x84>
   14038:	01d00713          	li	a4,29
   1403c:	02e78863          	beq	a5,a4,1406c <__sflush_r+0x258>
   14040:	01600713          	li	a4,22
   14044:	02e78463          	beq	a5,a4,1406c <__sflush_r+0x258>
   14048:	00c45783          	lhu	a5,12(s0)
   1404c:	0407e793          	ori	a5,a5,64
   14050:	00f41623          	sh	a5,12(s0)
   14054:	ee5ff06f          	j	13f38 <__sflush_r+0x124>
   14058:	fffff737          	lui	a4,0xfffff
   1405c:	7ff70713          	addi	a4,a4,2047 # fffff7ff <__BSS_END__+0xfffd7d17>
   14060:	01042683          	lw	a3,16(s0)
   14064:	00e7f7b3          	and	a5,a5,a4
   14068:	fa9ff06f          	j	14010 <__sflush_r+0x1fc>
   1406c:	0099a023          	sw	s1,0(s3)
   14070:	00000513          	li	a0,0
   14074:	ec5ff06f          	j	13f38 <__sflush_r+0x124>

00014078 <_fflush_r>:
   14078:	fe010113          	addi	sp,sp,-32
   1407c:	00812c23          	sw	s0,24(sp)
   14080:	00112e23          	sw	ra,28(sp)
   14084:	00050413          	mv	s0,a0
   14088:	00050663          	beqz	a0,14094 <_fflush_r+0x1c>
   1408c:	03852783          	lw	a5,56(a0)
   14090:	02078063          	beqz	a5,140b0 <_fflush_r+0x38>
   14094:	00c59783          	lh	a5,12(a1)
   14098:	02079663          	bnez	a5,140c4 <_fflush_r+0x4c>
   1409c:	01c12083          	lw	ra,28(sp)
   140a0:	01812403          	lw	s0,24(sp)
   140a4:	00000513          	li	a0,0
   140a8:	02010113          	addi	sp,sp,32
   140ac:	00008067          	ret
   140b0:	00b12623          	sw	a1,12(sp)
   140b4:	3fc000ef          	jal	ra,144b0 <__sinit>
   140b8:	00c12583          	lw	a1,12(sp)
   140bc:	00c59783          	lh	a5,12(a1)
   140c0:	fc078ee3          	beqz	a5,1409c <_fflush_r+0x24>
   140c4:	00040513          	mv	a0,s0
   140c8:	01812403          	lw	s0,24(sp)
   140cc:	01c12083          	lw	ra,28(sp)
   140d0:	02010113          	addi	sp,sp,32
   140d4:	d41ff06f          	j	13e14 <__sflush_r>

000140d8 <fflush>:
   140d8:	06050663          	beqz	a0,14144 <fflush+0x6c>
   140dc:	fe010113          	addi	sp,sp,-32
   140e0:	00812c23          	sw	s0,24(sp)
   140e4:	00050413          	mv	s0,a0
   140e8:	1c01a503          	lw	a0,448(gp) # 27a80 <_impure_ptr>
   140ec:	00112e23          	sw	ra,28(sp)
   140f0:	00050663          	beqz	a0,140fc <fflush+0x24>
   140f4:	03852783          	lw	a5,56(a0)
   140f8:	02078a63          	beqz	a5,1412c <fflush+0x54>
   140fc:	00c41783          	lh	a5,12(s0)
   14100:	00079c63          	bnez	a5,14118 <fflush+0x40>
   14104:	01c12083          	lw	ra,28(sp)
   14108:	01812403          	lw	s0,24(sp)
   1410c:	00000513          	li	a0,0
   14110:	02010113          	addi	sp,sp,32
   14114:	00008067          	ret
   14118:	00040593          	mv	a1,s0
   1411c:	01812403          	lw	s0,24(sp)
   14120:	01c12083          	lw	ra,28(sp)
   14124:	02010113          	addi	sp,sp,32
   14128:	cedff06f          	j	13e14 <__sflush_r>
   1412c:	00a12623          	sw	a0,12(sp)
   14130:	380000ef          	jal	ra,144b0 <__sinit>
   14134:	00c41783          	lh	a5,12(s0)
   14138:	00c12503          	lw	a0,12(sp)
   1413c:	fc0784e3          	beqz	a5,14104 <fflush+0x2c>
   14140:	fd9ff06f          	j	14118 <fflush+0x40>
   14144:	1b81a503          	lw	a0,440(gp) # 27a78 <_global_impure_ptr>
   14148:	000145b7          	lui	a1,0x14
   1414c:	07858593          	addi	a1,a1,120 # 14078 <_fflush_r>
   14150:	0d10006f          	j	14a20 <_fwalk_reent>

00014154 <__fp_lock>:
   14154:	00000513          	li	a0,0
   14158:	00008067          	ret

0001415c <_cleanup_r>:
   1415c:	0001e5b7          	lui	a1,0x1e
   14160:	e5058593          	addi	a1,a1,-432 # 1de50 <_fclose_r>
   14164:	0bd0006f          	j	14a20 <_fwalk_reent>

00014168 <__fp_unlock>:
   14168:	00000513          	li	a0,0
   1416c:	00008067          	ret

00014170 <__sinit.part.0>:
   14170:	fe010113          	addi	sp,sp,-32
   14174:	000147b7          	lui	a5,0x14
   14178:	00112e23          	sw	ra,28(sp)
   1417c:	00812c23          	sw	s0,24(sp)
   14180:	00912a23          	sw	s1,20(sp)
   14184:	01212823          	sw	s2,16(sp)
   14188:	01312623          	sw	s3,12(sp)
   1418c:	01412423          	sw	s4,8(sp)
   14190:	01512223          	sw	s5,4(sp)
   14194:	01612023          	sw	s6,0(sp)
   14198:	00452403          	lw	s0,4(a0)
   1419c:	15c78793          	addi	a5,a5,348 # 1415c <_cleanup_r>
   141a0:	02f52e23          	sw	a5,60(a0)
   141a4:	2ec50713          	addi	a4,a0,748
   141a8:	00300793          	li	a5,3
   141ac:	2ee52423          	sw	a4,744(a0)
   141b0:	2ef52223          	sw	a5,740(a0)
   141b4:	2e052023          	sw	zero,736(a0)
   141b8:	00400793          	li	a5,4
   141bc:	00050913          	mv	s2,a0
   141c0:	00f42623          	sw	a5,12(s0)
   141c4:	00800613          	li	a2,8
   141c8:	00000593          	li	a1,0
   141cc:	06042223          	sw	zero,100(s0)
   141d0:	00042023          	sw	zero,0(s0)
   141d4:	00042223          	sw	zero,4(s0)
   141d8:	00042423          	sw	zero,8(s0)
   141dc:	00042823          	sw	zero,16(s0)
   141e0:	00042a23          	sw	zero,20(s0)
   141e4:	00042c23          	sw	zero,24(s0)
   141e8:	05c40513          	addi	a0,s0,92
   141ec:	a5dfc0ef          	jal	ra,10c48 <memset>
   141f0:	00019b37          	lui	s6,0x19
   141f4:	00892483          	lw	s1,8(s2)
   141f8:	0001aab7          	lui	s5,0x1a
   141fc:	0001aa37          	lui	s4,0x1a
   14200:	0001a9b7          	lui	s3,0x1a
   14204:	7e0b0b13          	addi	s6,s6,2016 # 197e0 <__sread>
   14208:	844a8a93          	addi	s5,s5,-1980 # 19844 <__swrite>
   1420c:	8cca0a13          	addi	s4,s4,-1844 # 198cc <__sseek>
   14210:	93498993          	addi	s3,s3,-1740 # 19934 <__sclose>
   14214:	000107b7          	lui	a5,0x10
   14218:	03642023          	sw	s6,32(s0)
   1421c:	03542223          	sw	s5,36(s0)
   14220:	03442423          	sw	s4,40(s0)
   14224:	03342623          	sw	s3,44(s0)
   14228:	00842e23          	sw	s0,28(s0)
   1422c:	00978793          	addi	a5,a5,9 # 10009 <register_fini-0x6b>
   14230:	00f4a623          	sw	a5,12(s1)
   14234:	00800613          	li	a2,8
   14238:	00000593          	li	a1,0
   1423c:	0604a223          	sw	zero,100(s1)
   14240:	0004a023          	sw	zero,0(s1)
   14244:	0004a223          	sw	zero,4(s1)
   14248:	0004a423          	sw	zero,8(s1)
   1424c:	0004a823          	sw	zero,16(s1)
   14250:	0004aa23          	sw	zero,20(s1)
   14254:	0004ac23          	sw	zero,24(s1)
   14258:	05c48513          	addi	a0,s1,92
   1425c:	9edfc0ef          	jal	ra,10c48 <memset>
   14260:	00c92403          	lw	s0,12(s2)
   14264:	000207b7          	lui	a5,0x20
   14268:	0364a023          	sw	s6,32(s1)
   1426c:	0354a223          	sw	s5,36(s1)
   14270:	0344a423          	sw	s4,40(s1)
   14274:	0334a623          	sw	s3,44(s1)
   14278:	0094ae23          	sw	s1,28(s1)
   1427c:	01278793          	addi	a5,a5,18 # 20012 <_svfiprintf_r+0xe52>
   14280:	00f42623          	sw	a5,12(s0)
   14284:	06042223          	sw	zero,100(s0)
   14288:	00042023          	sw	zero,0(s0)
   1428c:	00042223          	sw	zero,4(s0)
   14290:	00042423          	sw	zero,8(s0)
   14294:	00042823          	sw	zero,16(s0)
   14298:	00042a23          	sw	zero,20(s0)
   1429c:	00042c23          	sw	zero,24(s0)
   142a0:	05c40513          	addi	a0,s0,92
   142a4:	00800613          	li	a2,8
   142a8:	00000593          	li	a1,0
   142ac:	99dfc0ef          	jal	ra,10c48 <memset>
   142b0:	01c12083          	lw	ra,28(sp)
   142b4:	03642023          	sw	s6,32(s0)
   142b8:	03542223          	sw	s5,36(s0)
   142bc:	03442423          	sw	s4,40(s0)
   142c0:	03342623          	sw	s3,44(s0)
   142c4:	00842e23          	sw	s0,28(s0)
   142c8:	01812403          	lw	s0,24(sp)
   142cc:	00100793          	li	a5,1
   142d0:	02f92c23          	sw	a5,56(s2)
   142d4:	01412483          	lw	s1,20(sp)
   142d8:	01012903          	lw	s2,16(sp)
   142dc:	00c12983          	lw	s3,12(sp)
   142e0:	00812a03          	lw	s4,8(sp)
   142e4:	00412a83          	lw	s5,4(sp)
   142e8:	00012b03          	lw	s6,0(sp)
   142ec:	02010113          	addi	sp,sp,32
   142f0:	00008067          	ret

000142f4 <__sfmoreglue>:
   142f4:	ff010113          	addi	sp,sp,-16
   142f8:	fff58613          	addi	a2,a1,-1
   142fc:	00812423          	sw	s0,8(sp)
   14300:	00161413          	slli	s0,a2,0x1
   14304:	00c40433          	add	s0,s0,a2
   14308:	00241413          	slli	s0,s0,0x2
   1430c:	00c40433          	add	s0,s0,a2
   14310:	00341413          	slli	s0,s0,0x3
   14314:	01212023          	sw	s2,0(sp)
   14318:	00058913          	mv	s2,a1
   1431c:	07440593          	addi	a1,s0,116
   14320:	00912223          	sw	s1,4(sp)
   14324:	00112623          	sw	ra,12(sp)
   14328:	758030ef          	jal	ra,17a80 <_malloc_r>
   1432c:	00050493          	mv	s1,a0
   14330:	02050063          	beqz	a0,14350 <__sfmoreglue+0x5c>
   14334:	00c50513          	addi	a0,a0,12
   14338:	0004a023          	sw	zero,0(s1)
   1433c:	0124a223          	sw	s2,4(s1)
   14340:	00a4a423          	sw	a0,8(s1)
   14344:	06840613          	addi	a2,s0,104
   14348:	00000593          	li	a1,0
   1434c:	8fdfc0ef          	jal	ra,10c48 <memset>
   14350:	00c12083          	lw	ra,12(sp)
   14354:	00812403          	lw	s0,8(sp)
   14358:	00012903          	lw	s2,0(sp)
   1435c:	00048513          	mv	a0,s1
   14360:	00412483          	lw	s1,4(sp)
   14364:	01010113          	addi	sp,sp,16
   14368:	00008067          	ret

0001436c <__sfp>:
   1436c:	fe010113          	addi	sp,sp,-32
   14370:	01212823          	sw	s2,16(sp)
   14374:	1b81a903          	lw	s2,440(gp) # 27a78 <_global_impure_ptr>
   14378:	01312623          	sw	s3,12(sp)
   1437c:	00112e23          	sw	ra,28(sp)
   14380:	03892783          	lw	a5,56(s2)
   14384:	00812c23          	sw	s0,24(sp)
   14388:	00912a23          	sw	s1,20(sp)
   1438c:	01412423          	sw	s4,8(sp)
   14390:	00050993          	mv	s3,a0
   14394:	0a078a63          	beqz	a5,14448 <__sfp+0xdc>
   14398:	2e090913          	addi	s2,s2,736
   1439c:	fff00493          	li	s1,-1
   143a0:	00400a13          	li	s4,4
   143a4:	00492783          	lw	a5,4(s2)
   143a8:	00892403          	lw	s0,8(s2)
   143ac:	fff78793          	addi	a5,a5,-1
   143b0:	0007d863          	bgez	a5,143c0 <__sfp+0x54>
   143b4:	0840006f          	j	14438 <__sfp+0xcc>
   143b8:	06840413          	addi	s0,s0,104
   143bc:	06978e63          	beq	a5,s1,14438 <__sfp+0xcc>
   143c0:	00c41703          	lh	a4,12(s0)
   143c4:	fff78793          	addi	a5,a5,-1
   143c8:	fe0718e3          	bnez	a4,143b8 <__sfp+0x4c>
   143cc:	ffff07b7          	lui	a5,0xffff0
   143d0:	00178793          	addi	a5,a5,1 # ffff0001 <__BSS_END__+0xfffc8519>
   143d4:	06042223          	sw	zero,100(s0)
   143d8:	00042023          	sw	zero,0(s0)
   143dc:	00042223          	sw	zero,4(s0)
   143e0:	00042423          	sw	zero,8(s0)
   143e4:	00f42623          	sw	a5,12(s0)
   143e8:	00042823          	sw	zero,16(s0)
   143ec:	00042a23          	sw	zero,20(s0)
   143f0:	00042c23          	sw	zero,24(s0)
   143f4:	00800613          	li	a2,8
   143f8:	00000593          	li	a1,0
   143fc:	05c40513          	addi	a0,s0,92
   14400:	849fc0ef          	jal	ra,10c48 <memset>
   14404:	02042823          	sw	zero,48(s0)
   14408:	02042a23          	sw	zero,52(s0)
   1440c:	04042223          	sw	zero,68(s0)
   14410:	04042423          	sw	zero,72(s0)
   14414:	01c12083          	lw	ra,28(sp)
   14418:	00040513          	mv	a0,s0
   1441c:	01812403          	lw	s0,24(sp)
   14420:	01412483          	lw	s1,20(sp)
   14424:	01012903          	lw	s2,16(sp)
   14428:	00c12983          	lw	s3,12(sp)
   1442c:	00812a03          	lw	s4,8(sp)
   14430:	02010113          	addi	sp,sp,32
   14434:	00008067          	ret
   14438:	00092403          	lw	s0,0(s2)
   1443c:	00040c63          	beqz	s0,14454 <__sfp+0xe8>
   14440:	00040913          	mv	s2,s0
   14444:	f61ff06f          	j	143a4 <__sfp+0x38>
   14448:	00090513          	mv	a0,s2
   1444c:	d25ff0ef          	jal	ra,14170 <__sinit.part.0>
   14450:	f49ff06f          	j	14398 <__sfp+0x2c>
   14454:	1ac00593          	li	a1,428
   14458:	00098513          	mv	a0,s3
   1445c:	624030ef          	jal	ra,17a80 <_malloc_r>
   14460:	00050413          	mv	s0,a0
   14464:	02050663          	beqz	a0,14490 <__sfp+0x124>
   14468:	00c50513          	addi	a0,a0,12
   1446c:	00042023          	sw	zero,0(s0)
   14470:	01442223          	sw	s4,4(s0)
   14474:	00a42423          	sw	a0,8(s0)
   14478:	1a000613          	li	a2,416
   1447c:	00000593          	li	a1,0
   14480:	fc8fc0ef          	jal	ra,10c48 <memset>
   14484:	00892023          	sw	s0,0(s2)
   14488:	00040913          	mv	s2,s0
   1448c:	f19ff06f          	j	143a4 <__sfp+0x38>
   14490:	00092023          	sw	zero,0(s2)
   14494:	00c00793          	li	a5,12
   14498:	00f9a023          	sw	a5,0(s3)
   1449c:	f79ff06f          	j	14414 <__sfp+0xa8>

000144a0 <_cleanup>:
   144a0:	1b81a503          	lw	a0,440(gp) # 27a78 <_global_impure_ptr>
   144a4:	0001e5b7          	lui	a1,0x1e
   144a8:	e5058593          	addi	a1,a1,-432 # 1de50 <_fclose_r>
   144ac:	5740006f          	j	14a20 <_fwalk_reent>

000144b0 <__sinit>:
   144b0:	03852783          	lw	a5,56(a0)
   144b4:	00078463          	beqz	a5,144bc <__sinit+0xc>
   144b8:	00008067          	ret
   144bc:	cb5ff06f          	j	14170 <__sinit.part.0>

000144c0 <__sfp_lock_acquire>:
   144c0:	00008067          	ret

000144c4 <__sfp_lock_release>:
   144c4:	00008067          	ret

000144c8 <__sinit_lock_acquire>:
   144c8:	00008067          	ret

000144cc <__sinit_lock_release>:
   144cc:	00008067          	ret

000144d0 <__fp_lock_all>:
   144d0:	1c01a503          	lw	a0,448(gp) # 27a80 <_impure_ptr>
   144d4:	000145b7          	lui	a1,0x14
   144d8:	15458593          	addi	a1,a1,340 # 14154 <__fp_lock>
   144dc:	4a00006f          	j	1497c <_fwalk>

000144e0 <__fp_unlock_all>:
   144e0:	1c01a503          	lw	a0,448(gp) # 27a80 <_impure_ptr>
   144e4:	000145b7          	lui	a1,0x14
   144e8:	16858593          	addi	a1,a1,360 # 14168 <__fp_unlock>
   144ec:	4900006f          	j	1497c <_fwalk>

000144f0 <__libc_fini_array>:
   144f0:	ff010113          	addi	sp,sp,-16
   144f4:	00812423          	sw	s0,8(sp)
   144f8:	000277b7          	lui	a5,0x27
   144fc:	00027437          	lui	s0,0x27
   14500:	0bc40413          	addi	s0,s0,188 # 270bc <__do_global_dtors_aux_fini_array_entry>
   14504:	0c078793          	addi	a5,a5,192 # 270c0 <impure_data>
   14508:	408787b3          	sub	a5,a5,s0
   1450c:	00912223          	sw	s1,4(sp)
   14510:	00112623          	sw	ra,12(sp)
   14514:	4027d493          	srai	s1,a5,0x2
   14518:	02048063          	beqz	s1,14538 <__libc_fini_array+0x48>
   1451c:	ffc78793          	addi	a5,a5,-4
   14520:	00878433          	add	s0,a5,s0
   14524:	00042783          	lw	a5,0(s0)
   14528:	fff48493          	addi	s1,s1,-1
   1452c:	ffc40413          	addi	s0,s0,-4
   14530:	000780e7          	jalr	a5
   14534:	fe0498e3          	bnez	s1,14524 <__libc_fini_array+0x34>
   14538:	00c12083          	lw	ra,12(sp)
   1453c:	00812403          	lw	s0,8(sp)
   14540:	00412483          	lw	s1,4(sp)
   14544:	01010113          	addi	sp,sp,16
   14548:	00008067          	ret

0001454c <_malloc_trim_r>:
   1454c:	fe010113          	addi	sp,sp,-32
   14550:	01312623          	sw	s3,12(sp)
   14554:	00812c23          	sw	s0,24(sp)
   14558:	00912a23          	sw	s1,20(sp)
   1455c:	01212823          	sw	s2,16(sp)
   14560:	01412423          	sw	s4,8(sp)
   14564:	00112e23          	sw	ra,28(sp)
   14568:	00058a13          	mv	s4,a1
   1456c:	00050913          	mv	s2,a0
   14570:	d9418993          	addi	s3,gp,-620 # 27654 <__malloc_av_>
   14574:	5dd030ef          	jal	ra,18350 <__malloc_lock>
   14578:	0089a703          	lw	a4,8(s3)
   1457c:	000017b7          	lui	a5,0x1
   14580:	fef78413          	addi	s0,a5,-17 # fef <register_fini-0xf085>
   14584:	00472483          	lw	s1,4(a4)
   14588:	41440433          	sub	s0,s0,s4
   1458c:	ffc4f493          	andi	s1,s1,-4
   14590:	00940433          	add	s0,s0,s1
   14594:	00c45413          	srli	s0,s0,0xc
   14598:	fff40413          	addi	s0,s0,-1
   1459c:	00c41413          	slli	s0,s0,0xc
   145a0:	00f44e63          	blt	s0,a5,145bc <_malloc_trim_r+0x70>
   145a4:	00000593          	li	a1,0
   145a8:	00090513          	mv	a0,s2
   145ac:	04c050ef          	jal	ra,195f8 <_sbrk_r>
   145b0:	0089a783          	lw	a5,8(s3)
   145b4:	009787b3          	add	a5,a5,s1
   145b8:	02f50863          	beq	a0,a5,145e8 <_malloc_trim_r+0x9c>
   145bc:	00090513          	mv	a0,s2
   145c0:	595030ef          	jal	ra,18354 <__malloc_unlock>
   145c4:	01c12083          	lw	ra,28(sp)
   145c8:	01812403          	lw	s0,24(sp)
   145cc:	01412483          	lw	s1,20(sp)
   145d0:	01012903          	lw	s2,16(sp)
   145d4:	00c12983          	lw	s3,12(sp)
   145d8:	00812a03          	lw	s4,8(sp)
   145dc:	00000513          	li	a0,0
   145e0:	02010113          	addi	sp,sp,32
   145e4:	00008067          	ret
   145e8:	408005b3          	neg	a1,s0
   145ec:	00090513          	mv	a0,s2
   145f0:	008050ef          	jal	ra,195f8 <_sbrk_r>
   145f4:	fff00793          	li	a5,-1
   145f8:	04f50863          	beq	a0,a5,14648 <_malloc_trim_r+0xfc>
   145fc:	20018793          	addi	a5,gp,512 # 27ac0 <__malloc_current_mallinfo>
   14600:	0007a703          	lw	a4,0(a5)
   14604:	0089a683          	lw	a3,8(s3)
   14608:	408484b3          	sub	s1,s1,s0
   1460c:	0014e493          	ori	s1,s1,1
   14610:	40870433          	sub	s0,a4,s0
   14614:	00090513          	mv	a0,s2
   14618:	0096a223          	sw	s1,4(a3) # 1004 <register_fini-0xf070>
   1461c:	0087a023          	sw	s0,0(a5)
   14620:	535030ef          	jal	ra,18354 <__malloc_unlock>
   14624:	01c12083          	lw	ra,28(sp)
   14628:	01812403          	lw	s0,24(sp)
   1462c:	01412483          	lw	s1,20(sp)
   14630:	01012903          	lw	s2,16(sp)
   14634:	00c12983          	lw	s3,12(sp)
   14638:	00812a03          	lw	s4,8(sp)
   1463c:	00100513          	li	a0,1
   14640:	02010113          	addi	sp,sp,32
   14644:	00008067          	ret
   14648:	00000593          	li	a1,0
   1464c:	00090513          	mv	a0,s2
   14650:	7a9040ef          	jal	ra,195f8 <_sbrk_r>
   14654:	0089a703          	lw	a4,8(s3)
   14658:	00f00693          	li	a3,15
   1465c:	40e507b3          	sub	a5,a0,a4
   14660:	f4f6dee3          	bge	a3,a5,145bc <_malloc_trim_r+0x70>
   14664:	1c41a683          	lw	a3,452(gp) # 27a84 <__malloc_sbrk_base>
   14668:	0017e793          	ori	a5,a5,1
   1466c:	00f72223          	sw	a5,4(a4)
   14670:	40d50533          	sub	a0,a0,a3
   14674:	20a1a023          	sw	a0,512(gp) # 27ac0 <__malloc_current_mallinfo>
   14678:	f45ff06f          	j	145bc <_malloc_trim_r+0x70>

0001467c <_free_r>:
   1467c:	12058463          	beqz	a1,147a4 <_free_r+0x128>
   14680:	ff010113          	addi	sp,sp,-16
   14684:	00812423          	sw	s0,8(sp)
   14688:	00912223          	sw	s1,4(sp)
   1468c:	00058413          	mv	s0,a1
   14690:	00050493          	mv	s1,a0
   14694:	00112623          	sw	ra,12(sp)
   14698:	4b9030ef          	jal	ra,18350 <__malloc_lock>
   1469c:	ffc42803          	lw	a6,-4(s0)
   146a0:	ff840713          	addi	a4,s0,-8
   146a4:	ffe87793          	andi	a5,a6,-2
   146a8:	00f70633          	add	a2,a4,a5
   146ac:	d9418593          	addi	a1,gp,-620 # 27654 <__malloc_av_>
   146b0:	00462683          	lw	a3,4(a2)
   146b4:	0085a503          	lw	a0,8(a1)
   146b8:	ffc6f693          	andi	a3,a3,-4
   146bc:	1ac50663          	beq	a0,a2,14868 <_free_r+0x1ec>
   146c0:	00d62223          	sw	a3,4(a2)
   146c4:	00187813          	andi	a6,a6,1
   146c8:	00d60533          	add	a0,a2,a3
   146cc:	08081e63          	bnez	a6,14768 <_free_r+0xec>
   146d0:	ff842303          	lw	t1,-8(s0)
   146d4:	00452803          	lw	a6,4(a0)
   146d8:	40670733          	sub	a4,a4,t1
   146dc:	00872883          	lw	a7,8(a4)
   146e0:	d9c18513          	addi	a0,gp,-612 # 2765c <__malloc_av_+0x8>
   146e4:	006787b3          	add	a5,a5,t1
   146e8:	00187813          	andi	a6,a6,1
   146ec:	12a88e63          	beq	a7,a0,14828 <_free_r+0x1ac>
   146f0:	00c72303          	lw	t1,12(a4)
   146f4:	0068a623          	sw	t1,12(a7)
   146f8:	01132423          	sw	a7,8(t1)
   146fc:	1c080e63          	beqz	a6,148d8 <_free_r+0x25c>
   14700:	0017e693          	ori	a3,a5,1
   14704:	00d72223          	sw	a3,4(a4)
   14708:	00f62023          	sw	a5,0(a2)
   1470c:	1ff00693          	li	a3,511
   14710:	0af6e663          	bltu	a3,a5,147bc <_free_r+0x140>
   14714:	ff87f693          	andi	a3,a5,-8
   14718:	00868693          	addi	a3,a3,8
   1471c:	0045a503          	lw	a0,4(a1)
   14720:	00d586b3          	add	a3,a1,a3
   14724:	0006a603          	lw	a2,0(a3)
   14728:	0057d813          	srli	a6,a5,0x5
   1472c:	00100793          	li	a5,1
   14730:	010797b3          	sll	a5,a5,a6
   14734:	00a7e7b3          	or	a5,a5,a0
   14738:	ff868513          	addi	a0,a3,-8
   1473c:	00a72623          	sw	a0,12(a4)
   14740:	00c72423          	sw	a2,8(a4)
   14744:	00f5a223          	sw	a5,4(a1)
   14748:	00e6a023          	sw	a4,0(a3)
   1474c:	00e62623          	sw	a4,12(a2)
   14750:	00812403          	lw	s0,8(sp)
   14754:	00c12083          	lw	ra,12(sp)
   14758:	00048513          	mv	a0,s1
   1475c:	00412483          	lw	s1,4(sp)
   14760:	01010113          	addi	sp,sp,16
   14764:	3f10306f          	j	18354 <__malloc_unlock>
   14768:	00452503          	lw	a0,4(a0)
   1476c:	00157513          	andi	a0,a0,1
   14770:	02051c63          	bnez	a0,147a8 <_free_r+0x12c>
   14774:	00d787b3          	add	a5,a5,a3
   14778:	d9c18513          	addi	a0,gp,-612 # 2765c <__malloc_av_+0x8>
   1477c:	00862683          	lw	a3,8(a2)
   14780:	0017e893          	ori	a7,a5,1
   14784:	00f70833          	add	a6,a4,a5
   14788:	16a68463          	beq	a3,a0,148f0 <_free_r+0x274>
   1478c:	00c62603          	lw	a2,12(a2)
   14790:	00c6a623          	sw	a2,12(a3)
   14794:	00d62423          	sw	a3,8(a2)
   14798:	01172223          	sw	a7,4(a4)
   1479c:	00f82023          	sw	a5,0(a6)
   147a0:	f6dff06f          	j	1470c <_free_r+0x90>
   147a4:	00008067          	ret
   147a8:	0017e693          	ori	a3,a5,1
   147ac:	fed42e23          	sw	a3,-4(s0)
   147b0:	00f62023          	sw	a5,0(a2)
   147b4:	1ff00693          	li	a3,511
   147b8:	f4f6fee3          	bgeu	a3,a5,14714 <_free_r+0x98>
   147bc:	0097d693          	srli	a3,a5,0x9
   147c0:	00400613          	li	a2,4
   147c4:	0ed66863          	bltu	a2,a3,148b4 <_free_r+0x238>
   147c8:	0067d693          	srli	a3,a5,0x6
   147cc:	03968813          	addi	a6,a3,57
   147d0:	03868613          	addi	a2,a3,56
   147d4:	00381813          	slli	a6,a6,0x3
   147d8:	01058833          	add	a6,a1,a6
   147dc:	00082683          	lw	a3,0(a6)
   147e0:	ff880813          	addi	a6,a6,-8
   147e4:	12d80463          	beq	a6,a3,1490c <_free_r+0x290>
   147e8:	0046a603          	lw	a2,4(a3)
   147ec:	ffc67613          	andi	a2,a2,-4
   147f0:	00c7f663          	bgeu	a5,a2,147fc <_free_r+0x180>
   147f4:	0086a683          	lw	a3,8(a3)
   147f8:	fed818e3          	bne	a6,a3,147e8 <_free_r+0x16c>
   147fc:	00c6a803          	lw	a6,12(a3)
   14800:	01072623          	sw	a6,12(a4)
   14804:	00d72423          	sw	a3,8(a4)
   14808:	00812403          	lw	s0,8(sp)
   1480c:	00c12083          	lw	ra,12(sp)
   14810:	00e82423          	sw	a4,8(a6)
   14814:	00048513          	mv	a0,s1
   14818:	00412483          	lw	s1,4(sp)
   1481c:	00e6a623          	sw	a4,12(a3)
   14820:	01010113          	addi	sp,sp,16
   14824:	3310306f          	j	18354 <__malloc_unlock>
   14828:	14081263          	bnez	a6,1496c <_free_r+0x2f0>
   1482c:	00c62583          	lw	a1,12(a2)
   14830:	00862603          	lw	a2,8(a2)
   14834:	00f687b3          	add	a5,a3,a5
   14838:	00812403          	lw	s0,8(sp)
   1483c:	00b62623          	sw	a1,12(a2)
   14840:	00c5a423          	sw	a2,8(a1)
   14844:	0017e693          	ori	a3,a5,1
   14848:	00c12083          	lw	ra,12(sp)
   1484c:	00d72223          	sw	a3,4(a4)
   14850:	00048513          	mv	a0,s1
   14854:	00f70733          	add	a4,a4,a5
   14858:	00412483          	lw	s1,4(sp)
   1485c:	00f72023          	sw	a5,0(a4)
   14860:	01010113          	addi	sp,sp,16
   14864:	2f10306f          	j	18354 <__malloc_unlock>
   14868:	00187813          	andi	a6,a6,1
   1486c:	00d787b3          	add	a5,a5,a3
   14870:	02081063          	bnez	a6,14890 <_free_r+0x214>
   14874:	ff842503          	lw	a0,-8(s0)
   14878:	40a70733          	sub	a4,a4,a0
   1487c:	00c72683          	lw	a3,12(a4)
   14880:	00872603          	lw	a2,8(a4)
   14884:	00a787b3          	add	a5,a5,a0
   14888:	00d62623          	sw	a3,12(a2)
   1488c:	00c6a423          	sw	a2,8(a3)
   14890:	0017e613          	ori	a2,a5,1
   14894:	1c81a683          	lw	a3,456(gp) # 27a88 <__malloc_trim_threshold>
   14898:	00c72223          	sw	a2,4(a4)
   1489c:	00e5a423          	sw	a4,8(a1)
   148a0:	ead7e8e3          	bltu	a5,a3,14750 <_free_r+0xd4>
   148a4:	1d81a583          	lw	a1,472(gp) # 27a98 <__malloc_top_pad>
   148a8:	00048513          	mv	a0,s1
   148ac:	ca1ff0ef          	jal	ra,1454c <_malloc_trim_r>
   148b0:	ea1ff06f          	j	14750 <_free_r+0xd4>
   148b4:	01400613          	li	a2,20
   148b8:	02d67463          	bgeu	a2,a3,148e0 <_free_r+0x264>
   148bc:	05400613          	li	a2,84
   148c0:	06d66463          	bltu	a2,a3,14928 <_free_r+0x2ac>
   148c4:	00c7d693          	srli	a3,a5,0xc
   148c8:	06f68813          	addi	a6,a3,111
   148cc:	06e68613          	addi	a2,a3,110
   148d0:	00381813          	slli	a6,a6,0x3
   148d4:	f05ff06f          	j	147d8 <_free_r+0x15c>
   148d8:	00d787b3          	add	a5,a5,a3
   148dc:	ea1ff06f          	j	1477c <_free_r+0x100>
   148e0:	05c68813          	addi	a6,a3,92
   148e4:	05b68613          	addi	a2,a3,91
   148e8:	00381813          	slli	a6,a6,0x3
   148ec:	eedff06f          	j	147d8 <_free_r+0x15c>
   148f0:	00e5aa23          	sw	a4,20(a1)
   148f4:	00e5a823          	sw	a4,16(a1)
   148f8:	00a72623          	sw	a0,12(a4)
   148fc:	00a72423          	sw	a0,8(a4)
   14900:	01172223          	sw	a7,4(a4)
   14904:	00f82023          	sw	a5,0(a6)
   14908:	e49ff06f          	j	14750 <_free_r+0xd4>
   1490c:	0045a503          	lw	a0,4(a1)
   14910:	40265613          	srai	a2,a2,0x2
   14914:	00100793          	li	a5,1
   14918:	00c79633          	sll	a2,a5,a2
   1491c:	00a66633          	or	a2,a2,a0
   14920:	00c5a223          	sw	a2,4(a1)
   14924:	eddff06f          	j	14800 <_free_r+0x184>
   14928:	15400613          	li	a2,340
   1492c:	00d66c63          	bltu	a2,a3,14944 <_free_r+0x2c8>
   14930:	00f7d693          	srli	a3,a5,0xf
   14934:	07868813          	addi	a6,a3,120
   14938:	07768613          	addi	a2,a3,119
   1493c:	00381813          	slli	a6,a6,0x3
   14940:	e99ff06f          	j	147d8 <_free_r+0x15c>
   14944:	55400613          	li	a2,1364
   14948:	00d66c63          	bltu	a2,a3,14960 <_free_r+0x2e4>
   1494c:	0127d693          	srli	a3,a5,0x12
   14950:	07d68813          	addi	a6,a3,125
   14954:	07c68613          	addi	a2,a3,124
   14958:	00381813          	slli	a6,a6,0x3
   1495c:	e7dff06f          	j	147d8 <_free_r+0x15c>
   14960:	3f800813          	li	a6,1016
   14964:	07e00613          	li	a2,126
   14968:	e71ff06f          	j	147d8 <_free_r+0x15c>
   1496c:	0017e693          	ori	a3,a5,1
   14970:	00d72223          	sw	a3,4(a4)
   14974:	00f62023          	sw	a5,0(a2)
   14978:	dd9ff06f          	j	14750 <_free_r+0xd4>

0001497c <_fwalk>:
   1497c:	fe010113          	addi	sp,sp,-32
   14980:	01212823          	sw	s2,16(sp)
   14984:	01312623          	sw	s3,12(sp)
   14988:	01412423          	sw	s4,8(sp)
   1498c:	01512223          	sw	s5,4(sp)
   14990:	01612023          	sw	s6,0(sp)
   14994:	00112e23          	sw	ra,28(sp)
   14998:	00812c23          	sw	s0,24(sp)
   1499c:	00912a23          	sw	s1,20(sp)
   149a0:	00058b13          	mv	s6,a1
   149a4:	2e050a93          	addi	s5,a0,736
   149a8:	00000a13          	li	s4,0
   149ac:	00100993          	li	s3,1
   149b0:	fff00913          	li	s2,-1
   149b4:	004aa483          	lw	s1,4(s5)
   149b8:	008aa403          	lw	s0,8(s5)
   149bc:	fff48493          	addi	s1,s1,-1
   149c0:	0204c663          	bltz	s1,149ec <_fwalk+0x70>
   149c4:	00c45783          	lhu	a5,12(s0)
   149c8:	fff48493          	addi	s1,s1,-1
   149cc:	00f9fc63          	bgeu	s3,a5,149e4 <_fwalk+0x68>
   149d0:	00e41783          	lh	a5,14(s0)
   149d4:	00040513          	mv	a0,s0
   149d8:	01278663          	beq	a5,s2,149e4 <_fwalk+0x68>
   149dc:	000b00e7          	jalr	s6
   149e0:	00aa6a33          	or	s4,s4,a0
   149e4:	06840413          	addi	s0,s0,104
   149e8:	fd249ee3          	bne	s1,s2,149c4 <_fwalk+0x48>
   149ec:	000aaa83          	lw	s5,0(s5)
   149f0:	fc0a92e3          	bnez	s5,149b4 <_fwalk+0x38>
   149f4:	01c12083          	lw	ra,28(sp)
   149f8:	01812403          	lw	s0,24(sp)
   149fc:	01412483          	lw	s1,20(sp)
   14a00:	01012903          	lw	s2,16(sp)
   14a04:	00c12983          	lw	s3,12(sp)
   14a08:	00412a83          	lw	s5,4(sp)
   14a0c:	00012b03          	lw	s6,0(sp)
   14a10:	000a0513          	mv	a0,s4
   14a14:	00812a03          	lw	s4,8(sp)
   14a18:	02010113          	addi	sp,sp,32
   14a1c:	00008067          	ret

00014a20 <_fwalk_reent>:
   14a20:	fd010113          	addi	sp,sp,-48
   14a24:	03212023          	sw	s2,32(sp)
   14a28:	01312e23          	sw	s3,28(sp)
   14a2c:	01412c23          	sw	s4,24(sp)
   14a30:	01512a23          	sw	s5,20(sp)
   14a34:	01612823          	sw	s6,16(sp)
   14a38:	01712623          	sw	s7,12(sp)
   14a3c:	02112623          	sw	ra,44(sp)
   14a40:	02812423          	sw	s0,40(sp)
   14a44:	02912223          	sw	s1,36(sp)
   14a48:	00050a93          	mv	s5,a0
   14a4c:	00058b93          	mv	s7,a1
   14a50:	2e050b13          	addi	s6,a0,736
   14a54:	00000a13          	li	s4,0
   14a58:	00100993          	li	s3,1
   14a5c:	fff00913          	li	s2,-1
   14a60:	004b2483          	lw	s1,4(s6)
   14a64:	008b2403          	lw	s0,8(s6)
   14a68:	fff48493          	addi	s1,s1,-1
   14a6c:	0204c863          	bltz	s1,14a9c <_fwalk_reent+0x7c>
   14a70:	00c45783          	lhu	a5,12(s0)
   14a74:	fff48493          	addi	s1,s1,-1
   14a78:	00f9fe63          	bgeu	s3,a5,14a94 <_fwalk_reent+0x74>
   14a7c:	00e41783          	lh	a5,14(s0)
   14a80:	00040593          	mv	a1,s0
   14a84:	000a8513          	mv	a0,s5
   14a88:	01278663          	beq	a5,s2,14a94 <_fwalk_reent+0x74>
   14a8c:	000b80e7          	jalr	s7
   14a90:	00aa6a33          	or	s4,s4,a0
   14a94:	06840413          	addi	s0,s0,104
   14a98:	fd249ce3          	bne	s1,s2,14a70 <_fwalk_reent+0x50>
   14a9c:	000b2b03          	lw	s6,0(s6)
   14aa0:	fc0b10e3          	bnez	s6,14a60 <_fwalk_reent+0x40>
   14aa4:	02c12083          	lw	ra,44(sp)
   14aa8:	02812403          	lw	s0,40(sp)
   14aac:	02412483          	lw	s1,36(sp)
   14ab0:	02012903          	lw	s2,32(sp)
   14ab4:	01c12983          	lw	s3,28(sp)
   14ab8:	01412a83          	lw	s5,20(sp)
   14abc:	01012b03          	lw	s6,16(sp)
   14ac0:	00c12b83          	lw	s7,12(sp)
   14ac4:	000a0513          	mv	a0,s4
   14ac8:	01812a03          	lw	s4,24(sp)
   14acc:	03010113          	addi	sp,sp,48
   14ad0:	00008067          	ret

00014ad4 <eshdn1>:
   14ad4:	00450693          	addi	a3,a0,4
   14ad8:	00000793          	li	a5,0
   14adc:	01a50513          	addi	a0,a0,26
   14ae0:	ffff8837          	lui	a6,0xffff8
   14ae4:	01c0006f          	j	14b00 <eshdn1+0x2c>
   14ae8:	00179793          	slli	a5,a5,0x1
   14aec:	00e69023          	sh	a4,0(a3)
   14af0:	01079793          	slli	a5,a5,0x10
   14af4:	00268693          	addi	a3,a3,2
   14af8:	0107d793          	srli	a5,a5,0x10
   14afc:	02d50e63          	beq	a0,a3,14b38 <eshdn1+0x64>
   14b00:	0006d703          	lhu	a4,0(a3)
   14b04:	00177613          	andi	a2,a4,1
   14b08:	00060463          	beqz	a2,14b10 <eshdn1+0x3c>
   14b0c:	0017e793          	ori	a5,a5,1
   14b10:	00175713          	srli	a4,a4,0x1
   14b14:	0027f613          	andi	a2,a5,2
   14b18:	010765b3          	or	a1,a4,a6
   14b1c:	fc0606e3          	beqz	a2,14ae8 <eshdn1+0x14>
   14b20:	00179793          	slli	a5,a5,0x1
   14b24:	00b69023          	sh	a1,0(a3)
   14b28:	01079793          	slli	a5,a5,0x10
   14b2c:	00268693          	addi	a3,a3,2
   14b30:	0107d793          	srli	a5,a5,0x10
   14b34:	fcd516e3          	bne	a0,a3,14b00 <eshdn1+0x2c>
   14b38:	00008067          	ret

00014b3c <eshup1>:
   14b3c:	01850693          	addi	a3,a0,24
   14b40:	00000713          	li	a4,0
   14b44:	00250513          	addi	a0,a0,2
   14b48:	01c0006f          	j	14b64 <eshup1+0x28>
   14b4c:	00171713          	slli	a4,a4,0x1
   14b50:	00f69023          	sh	a5,0(a3)
   14b54:	01071713          	slli	a4,a4,0x10
   14b58:	ffe68693          	addi	a3,a3,-2
   14b5c:	01075713          	srli	a4,a4,0x10
   14b60:	04d50463          	beq	a0,a3,14ba8 <eshup1+0x6c>
   14b64:	0006d783          	lhu	a5,0(a3)
   14b68:	01079613          	slli	a2,a5,0x10
   14b6c:	41065613          	srai	a2,a2,0x10
   14b70:	00179793          	slli	a5,a5,0x1
   14b74:	00065463          	bgez	a2,14b7c <eshup1+0x40>
   14b78:	00176713          	ori	a4,a4,1
   14b7c:	01079793          	slli	a5,a5,0x10
   14b80:	0107d793          	srli	a5,a5,0x10
   14b84:	00277613          	andi	a2,a4,2
   14b88:	0017e593          	ori	a1,a5,1
   14b8c:	fc0600e3          	beqz	a2,14b4c <eshup1+0x10>
   14b90:	00171713          	slli	a4,a4,0x1
   14b94:	00b69023          	sh	a1,0(a3)
   14b98:	01071713          	slli	a4,a4,0x10
   14b9c:	ffe68693          	addi	a3,a3,-2
   14ba0:	01075713          	srli	a4,a4,0x10
   14ba4:	fcd510e3          	bne	a0,a3,14b64 <eshup1+0x28>
   14ba8:	00008067          	ret

00014bac <m16m>:
   14bac:	fc010113          	addi	sp,sp,-64
   14bb0:	03312623          	sw	s3,44(sp)
   14bb4:	000109b7          	lui	s3,0x10
   14bb8:	02812c23          	sw	s0,56(sp)
   14bbc:	02912a23          	sw	s1,52(sp)
   14bc0:	03212823          	sw	s2,48(sp)
   14bc4:	03412423          	sw	s4,40(sp)
   14bc8:	03512223          	sw	s5,36(sp)
   14bcc:	02112e23          	sw	ra,60(sp)
   14bd0:	00050a13          	mv	s4,a0
   14bd4:	00060493          	mv	s1,a2
   14bd8:	00011d23          	sh	zero,26(sp)
   14bdc:	00011e23          	sh	zero,28(sp)
   14be0:	01858913          	addi	s2,a1,24
   14be4:	01c10413          	addi	s0,sp,28
   14be8:	00810a93          	addi	s5,sp,8
   14bec:	fff98993          	addi	s3,s3,-1 # ffff <register_fini-0x75>
   14bf0:	00095503          	lhu	a0,0(s2)
   14bf4:	000a0593          	mv	a1,s4
   14bf8:	ffe40413          	addi	s0,s0,-2
   14bfc:	ffe90913          	addi	s2,s2,-2
   14c00:	04051663          	bnez	a0,14c4c <m16m+0xa0>
   14c04:	fe041f23          	sh	zero,-2(s0)
   14c08:	ff5414e3          	bne	s0,s5,14bf0 <m16m+0x44>
   14c0c:	00448613          	addi	a2,s1,4
   14c10:	01e10713          	addi	a4,sp,30
   14c14:	00045783          	lhu	a5,0(s0)
   14c18:	00240413          	addi	s0,s0,2
   14c1c:	00260613          	addi	a2,a2,2
   14c20:	fef61f23          	sh	a5,-2(a2)
   14c24:	fee418e3          	bne	s0,a4,14c14 <m16m+0x68>
   14c28:	03c12083          	lw	ra,60(sp)
   14c2c:	03812403          	lw	s0,56(sp)
   14c30:	03412483          	lw	s1,52(sp)
   14c34:	03012903          	lw	s2,48(sp)
   14c38:	02c12983          	lw	s3,44(sp)
   14c3c:	02812a03          	lw	s4,40(sp)
   14c40:	02412a83          	lw	s5,36(sp)
   14c44:	04010113          	addi	sp,sp,64
   14c48:	00008067          	ret
   14c4c:	625100ef          	jal	ra,25a70 <__mulsi3>
   14c50:	00245783          	lhu	a5,2(s0)
   14c54:	00045603          	lhu	a2,0(s0)
   14c58:	01357733          	and	a4,a0,s3
   14c5c:	00f70733          	add	a4,a4,a5
   14c60:	01055793          	srli	a5,a0,0x10
   14c64:	01075693          	srli	a3,a4,0x10
   14c68:	00c787b3          	add	a5,a5,a2
   14c6c:	00d787b3          	add	a5,a5,a3
   14c70:	0107d693          	srli	a3,a5,0x10
   14c74:	00e41123          	sh	a4,2(s0)
   14c78:	00f41023          	sh	a5,0(s0)
   14c7c:	fed41f23          	sh	a3,-2(s0)
   14c80:	f75418e3          	bne	s0,s5,14bf0 <m16m+0x44>
   14c84:	f89ff06f          	j	14c0c <m16m+0x60>

00014c88 <emovo.constprop.0>:
   14c88:	00055703          	lhu	a4,0(a0)
   14c8c:	00255783          	lhu	a5,2(a0)
   14c90:	00070663          	beqz	a4,14c9c <emovo.constprop.0+0x14>
   14c94:	00008737          	lui	a4,0x8
   14c98:	00e7e7b3          	or	a5,a5,a4
   14c9c:	00f59923          	sh	a5,18(a1)
   14ca0:	00255703          	lhu	a4,2(a0)
   14ca4:	000087b7          	lui	a5,0x8
   14ca8:	fff78793          	addi	a5,a5,-1 # 7fff <register_fini-0x8075>
   14cac:	02f70463          	beq	a4,a5,14cd4 <emovo.constprop.0+0x4c>
   14cb0:	00650793          	addi	a5,a0,6
   14cb4:	01058593          	addi	a1,a1,16
   14cb8:	01850513          	addi	a0,a0,24
   14cbc:	0007d703          	lhu	a4,0(a5)
   14cc0:	00278793          	addi	a5,a5,2
   14cc4:	ffe58593          	addi	a1,a1,-2
   14cc8:	00e59123          	sh	a4,2(a1)
   14ccc:	fea798e3          	bne	a5,a0,14cbc <emovo.constprop.0+0x34>
   14cd0:	00008067          	ret
   14cd4:	00650793          	addi	a5,a0,6
   14cd8:	01a50513          	addi	a0,a0,26
   14cdc:	0007d703          	lhu	a4,0(a5)
   14ce0:	00278793          	addi	a5,a5,2
   14ce4:	02071a63          	bnez	a4,14d18 <emovo.constprop.0+0x90>
   14ce8:	fea79ae3          	bne	a5,a0,14cdc <emovo.constprop.0+0x54>
   14cec:	01258713          	addi	a4,a1,18
   14cf0:	00058793          	mv	a5,a1
   14cf4:	00278793          	addi	a5,a5,2
   14cf8:	fe079f23          	sh	zero,-2(a5)
   14cfc:	fef71ce3          	bne	a4,a5,14cf4 <emovo.constprop.0+0x6c>
   14d00:	0125d783          	lhu	a5,18(a1)
   14d04:	00008737          	lui	a4,0x8
   14d08:	fff70713          	addi	a4,a4,-1 # 7fff <register_fini-0x8075>
   14d0c:	00e7e7b3          	or	a5,a5,a4
   14d10:	00f59923          	sh	a5,18(a1)
   14d14:	00008067          	ret
   14d18:	01058713          	addi	a4,a1,16
   14d1c:	00058793          	mv	a5,a1
   14d20:	00278793          	addi	a5,a5,2
   14d24:	fe079f23          	sh	zero,-2(a5)
   14d28:	fef71ce3          	bne	a4,a5,14d20 <emovo.constprop.0+0x98>
   14d2c:	ffffc7b7          	lui	a5,0xffffc
   14d30:	00f59823          	sh	a5,16(a1)
   14d34:	ffff87b7          	lui	a5,0xffff8
   14d38:	fff7c793          	not	a5,a5
   14d3c:	00f59923          	sh	a5,18(a1)
   14d40:	00008067          	ret

00014d44 <enormlz>:
   14d44:	00455783          	lhu	a5,4(a0)
   14d48:	ff010113          	addi	sp,sp,-16
   14d4c:	00912223          	sw	s1,4(sp)
   14d50:	00112623          	sw	ra,12(sp)
   14d54:	00812423          	sw	s0,8(sp)
   14d58:	01212023          	sw	s2,0(sp)
   14d5c:	00050493          	mv	s1,a0
   14d60:	0c079c63          	bnez	a5,14e38 <enormlz+0xf4>
   14d64:	00655703          	lhu	a4,6(a0)
   14d68:	00000413          	li	s0,0
   14d6c:	01071793          	slli	a5,a4,0x10
   14d70:	4107d793          	srai	a5,a5,0x10
   14d74:	0a07c463          	bltz	a5,14e1c <enormlz+0xd8>
   14d78:	01a50693          	addi	a3,a0,26
   14d7c:	0a000613          	li	a2,160
   14d80:	02071863          	bnez	a4,14db0 <enormlz+0x6c>
   14d84:	00648793          	addi	a5,s1,6
   14d88:	0080006f          	j	14d90 <enormlz+0x4c>
   14d8c:	0007d703          	lhu	a4,0(a5) # ffff8000 <__BSS_END__+0xfffd0518>
   14d90:	00278793          	addi	a5,a5,2
   14d94:	fee79e23          	sh	a4,-4(a5)
   14d98:	fed79ae3          	bne	a5,a3,14d8c <enormlz+0x48>
   14d9c:	00049c23          	sh	zero,24(s1)
   14da0:	01040413          	addi	s0,s0,16
   14da4:	06c40c63          	beq	s0,a2,14e1c <enormlz+0xd8>
   14da8:	0064d703          	lhu	a4,6(s1)
   14dac:	fc070ce3          	beqz	a4,14d84 <enormlz+0x40>
   14db0:	f0077793          	andi	a5,a4,-256
   14db4:	04079063          	bnez	a5,14df4 <enormlz+0xb0>
   14db8:	01848513          	addi	a0,s1,24
   14dbc:	00248593          	addi	a1,s1,2
   14dc0:	00000793          	li	a5,0
   14dc4:	00050713          	mv	a4,a0
   14dc8:	00075683          	lhu	a3,0(a4)
   14dcc:	ffe70713          	addi	a4,a4,-2
   14dd0:	00869613          	slli	a2,a3,0x8
   14dd4:	00c7e7b3          	or	a5,a5,a2
   14dd8:	00f71123          	sh	a5,2(a4)
   14ddc:	0086d793          	srli	a5,a3,0x8
   14de0:	fee594e3          	bne	a1,a4,14dc8 <enormlz+0x84>
   14de4:	0064d703          	lhu	a4,6(s1)
   14de8:	00840413          	addi	s0,s0,8
   14dec:	f0077793          	andi	a5,a4,-256
   14df0:	fc0788e3          	beqz	a5,14dc0 <enormlz+0x7c>
   14df4:	0a000913          	li	s2,160
   14df8:	0140006f          	j	14e0c <enormlz+0xc8>
   14dfc:	00140413          	addi	s0,s0,1
   14e00:	d3dff0ef          	jal	ra,14b3c <eshup1>
   14e04:	00894c63          	blt	s2,s0,14e1c <enormlz+0xd8>
   14e08:	0064d703          	lhu	a4,6(s1)
   14e0c:	01071713          	slli	a4,a4,0x10
   14e10:	41075713          	srai	a4,a4,0x10
   14e14:	00048513          	mv	a0,s1
   14e18:	fe0752e3          	bgez	a4,14dfc <enormlz+0xb8>
   14e1c:	00c12083          	lw	ra,12(sp)
   14e20:	00040513          	mv	a0,s0
   14e24:	00812403          	lw	s0,8(sp)
   14e28:	00412483          	lw	s1,4(sp)
   14e2c:	00012903          	lw	s2,0(sp)
   14e30:	01010113          	addi	sp,sp,16
   14e34:	00008067          	ret
   14e38:	f007f713          	andi	a4,a5,-256
   14e3c:	00000413          	li	s0,0
   14e40:	04071063          	bnez	a4,14e80 <enormlz+0x13c>
   14e44:	f6f00913          	li	s2,-145
   14e48:	0140006f          	j	14e5c <enormlz+0x118>
   14e4c:	fff40413          	addi	s0,s0,-1
   14e50:	c85ff0ef          	jal	ra,14ad4 <eshdn1>
   14e54:	fd2404e3          	beq	s0,s2,14e1c <enormlz+0xd8>
   14e58:	0044d783          	lhu	a5,4(s1)
   14e5c:	00048513          	mv	a0,s1
   14e60:	fe0796e3          	bnez	a5,14e4c <enormlz+0x108>
   14e64:	00c12083          	lw	ra,12(sp)
   14e68:	00040513          	mv	a0,s0
   14e6c:	00812403          	lw	s0,8(sp)
   14e70:	00412483          	lw	s1,4(sp)
   14e74:	00012903          	lw	s2,0(sp)
   14e78:	01010113          	addi	sp,sp,16
   14e7c:	00008067          	ret
   14e80:	00450693          	addi	a3,a0,4
   14e84:	01a50593          	addi	a1,a0,26
   14e88:	00000713          	li	a4,0
   14e8c:	0080006f          	j	14e94 <enormlz+0x150>
   14e90:	0006d783          	lhu	a5,0(a3)
   14e94:	0087d613          	srli	a2,a5,0x8
   14e98:	00c76733          	or	a4,a4,a2
   14e9c:	00879793          	slli	a5,a5,0x8
   14ea0:	00e69023          	sh	a4,0(a3)
   14ea4:	01079713          	slli	a4,a5,0x10
   14ea8:	00268693          	addi	a3,a3,2
   14eac:	01075713          	srli	a4,a4,0x10
   14eb0:	fed590e3          	bne	a1,a3,14e90 <enormlz+0x14c>
   14eb4:	0044d783          	lhu	a5,4(s1)
   14eb8:	ff800413          	li	s0,-8
   14ebc:	f89ff06f          	j	14e44 <enormlz+0x100>

00014ec0 <eshift.part.0>:
   14ec0:	fe010113          	addi	sp,sp,-32
   14ec4:	00812c23          	sw	s0,24(sp)
   14ec8:	00912a23          	sw	s1,20(sp)
   14ecc:	00112e23          	sw	ra,28(sp)
   14ed0:	01212823          	sw	s2,16(sp)
   14ed4:	01312623          	sw	s3,12(sp)
   14ed8:	00058493          	mv	s1,a1
   14edc:	00050413          	mv	s0,a0
   14ee0:	0a05c463          	bltz	a1,14f88 <eshift.part.0+0xc8>
   14ee4:	00f00793          	li	a5,15
   14ee8:	00058613          	mv	a2,a1
   14eec:	00450513          	addi	a0,a0,4
   14ef0:	01840693          	addi	a3,s0,24
   14ef4:	00f00593          	li	a1,15
   14ef8:	0297d463          	bge	a5,s1,14f20 <eshift.part.0+0x60>
   14efc:	00050793          	mv	a5,a0
   14f00:	0027d703          	lhu	a4,2(a5)
   14f04:	00278793          	addi	a5,a5,2
   14f08:	fee79f23          	sh	a4,-2(a5)
   14f0c:	fef69ae3          	bne	a3,a5,14f00 <eshift.part.0+0x40>
   14f10:	00041c23          	sh	zero,24(s0)
   14f14:	ff060613          	addi	a2,a2,-16
   14f18:	fec5c2e3          	blt	a1,a2,14efc <eshift.part.0+0x3c>
   14f1c:	00f4f493          	andi	s1,s1,15
   14f20:	00700793          	li	a5,7
   14f24:	0297d863          	bge	a5,s1,14f54 <eshift.part.0+0x94>
   14f28:	01840713          	addi	a4,s0,24
   14f2c:	00240593          	addi	a1,s0,2
   14f30:	00000793          	li	a5,0
   14f34:	00075683          	lhu	a3,0(a4)
   14f38:	ffe70713          	addi	a4,a4,-2
   14f3c:	00869613          	slli	a2,a3,0x8
   14f40:	00c7e7b3          	or	a5,a5,a2
   14f44:	00f71123          	sh	a5,2(a4)
   14f48:	0086d793          	srli	a5,a3,0x8
   14f4c:	fee594e3          	bne	a1,a4,14f34 <eshift.part.0+0x74>
   14f50:	ff848493          	addi	s1,s1,-8
   14f54:	00048a63          	beqz	s1,14f68 <eshift.part.0+0xa8>
   14f58:	fff48493          	addi	s1,s1,-1
   14f5c:	00040513          	mv	a0,s0
   14f60:	bddff0ef          	jal	ra,14b3c <eshup1>
   14f64:	fe049ae3          	bnez	s1,14f58 <eshift.part.0+0x98>
   14f68:	00000513          	li	a0,0
   14f6c:	01c12083          	lw	ra,28(sp)
   14f70:	01812403          	lw	s0,24(sp)
   14f74:	01412483          	lw	s1,20(sp)
   14f78:	01012903          	lw	s2,16(sp)
   14f7c:	00c12983          	lw	s3,12(sp)
   14f80:	02010113          	addi	sp,sp,32
   14f84:	00008067          	ret
   14f88:	ff100793          	li	a5,-15
   14f8c:	40b00933          	neg	s2,a1
   14f90:	12f5de63          	bge	a1,a5,150cc <eshift.part.0+0x20c>
   14f94:	01850593          	addi	a1,a0,24
   14f98:	00000993          	li	s3,0
   14f9c:	00450693          	addi	a3,a0,4
   14fa0:	00f00613          	li	a2,15
   14fa4:	01845703          	lhu	a4,24(s0)
   14fa8:	00058793          	mv	a5,a1
   14fac:	00e9e9b3          	or	s3,s3,a4
   14fb0:	ffe7d703          	lhu	a4,-2(a5)
   14fb4:	ffe78793          	addi	a5,a5,-2
   14fb8:	00e79123          	sh	a4,2(a5)
   14fbc:	fed79ae3          	bne	a5,a3,14fb0 <eshift.part.0+0xf0>
   14fc0:	00041223          	sh	zero,4(s0)
   14fc4:	ff090913          	addi	s2,s2,-16
   14fc8:	fd264ee3          	blt	a2,s2,14fa4 <eshift.part.0+0xe4>
   14fcc:	ff000913          	li	s2,-16
   14fd0:	ff100713          	li	a4,-15
   14fd4:	40990933          	sub	s2,s2,s1
   14fd8:	00000793          	li	a5,0
   14fdc:	0ae4c663          	blt	s1,a4,15088 <eshift.part.0+0x1c8>
   14fe0:	00f90933          	add	s2,s2,a5
   14fe4:	00700793          	li	a5,7
   14fe8:	0527ca63          	blt	a5,s2,1503c <eshift.part.0+0x17c>
   14fec:	0c090263          	beqz	s2,150b0 <eshift.part.0+0x1f0>
   14ff0:	01845783          	lhu	a5,24(s0)
   14ff4:	fff90913          	addi	s2,s2,-1
   14ff8:	00040513          	mv	a0,s0
   14ffc:	0017f793          	andi	a5,a5,1
   15000:	0137e9b3          	or	s3,a5,s3
   15004:	ad1ff0ef          	jal	ra,14ad4 <eshdn1>
   15008:	fe0914e3          	bnez	s2,14ff0 <eshift.part.0+0x130>
   1500c:	01099793          	slli	a5,s3,0x10
   15010:	4107d793          	srai	a5,a5,0x10
   15014:	08079663          	bnez	a5,150a0 <eshift.part.0+0x1e0>
   15018:	01099513          	slli	a0,s3,0x10
   1501c:	01055513          	srli	a0,a0,0x10
   15020:	01c12083          	lw	ra,28(sp)
   15024:	01812403          	lw	s0,24(sp)
   15028:	01412483          	lw	s1,20(sp)
   1502c:	01012903          	lw	s2,16(sp)
   15030:	00c12983          	lw	s3,12(sp)
   15034:	02010113          	addi	sp,sp,32
   15038:	00008067          	ret
   1503c:	01099993          	slli	s3,s3,0x10
   15040:	4109d993          	srai	s3,s3,0x10
   15044:	01844783          	lbu	a5,24(s0)
   15048:	01a40593          	addi	a1,s0,26
   1504c:	00f9e9b3          	or	s3,s3,a5
   15050:	01099993          	slli	s3,s3,0x10
   15054:	0109d993          	srli	s3,s3,0x10
   15058:	00000793          	li	a5,0
   1505c:	0006d703          	lhu	a4,0(a3)
   15060:	00268693          	addi	a3,a3,2
   15064:	00875613          	srli	a2,a4,0x8
   15068:	00c7e7b3          	or	a5,a5,a2
   1506c:	00871713          	slli	a4,a4,0x8
   15070:	fef69f23          	sh	a5,-2(a3)
   15074:	01071793          	slli	a5,a4,0x10
   15078:	0107d793          	srli	a5,a5,0x10
   1507c:	fed590e3          	bne	a1,a3,1505c <eshift.part.0+0x19c>
   15080:	ff890913          	addi	s2,s2,-8
   15084:	f69ff06f          	j	14fec <eshift.part.0+0x12c>
   15088:	ff097793          	andi	a5,s2,-16
   1508c:	40f007b3          	neg	a5,a5
   15090:	00f90933          	add	s2,s2,a5
   15094:	00700793          	li	a5,7
   15098:	f527dae3          	bge	a5,s2,14fec <eshift.part.0+0x12c>
   1509c:	fa1ff06f          	j	1503c <eshift.part.0+0x17c>
   150a0:	00100993          	li	s3,1
   150a4:	01099513          	slli	a0,s3,0x10
   150a8:	01055513          	srli	a0,a0,0x10
   150ac:	f75ff06f          	j	15020 <eshift.part.0+0x160>
   150b0:	00098513          	mv	a0,s3
   150b4:	00099863          	bnez	s3,150c4 <eshift.part.0+0x204>
   150b8:	01051513          	slli	a0,a0,0x10
   150bc:	01055513          	srli	a0,a0,0x10
   150c0:	eadff06f          	j	14f6c <eshift.part.0+0xac>
   150c4:	00100513          	li	a0,1
   150c8:	ff1ff06f          	j	150b8 <eshift.part.0+0x1f8>
   150cc:	ff900793          	li	a5,-7
   150d0:	00000993          	li	s3,0
   150d4:	00450693          	addi	a3,a0,4
   150d8:	f6f5c6e3          	blt	a1,a5,15044 <eshift.part.0+0x184>
   150dc:	f15ff06f          	j	14ff0 <eshift.part.0+0x130>

000150e0 <emovi>:
   150e0:	01255783          	lhu	a5,18(a0)
   150e4:	00008637          	lui	a2,0x8
   150e8:	fff60613          	addi	a2,a2,-1 # 7fff <register_fini-0x8075>
   150ec:	00f7d793          	srli	a5,a5,0xf
   150f0:	40f007b3          	neg	a5,a5
   150f4:	00f59023          	sh	a5,0(a1)
   150f8:	01255683          	lhu	a3,18(a0)
   150fc:	01050793          	addi	a5,a0,16
   15100:	00458713          	addi	a4,a1,4
   15104:	00d676b3          	and	a3,a2,a3
   15108:	00d59123          	sh	a3,2(a1)
   1510c:	02c68663          	beq	a3,a2,15138 <emovi+0x58>
   15110:	00658713          	addi	a4,a1,6
   15114:	00059223          	sh	zero,4(a1)
   15118:	ffe50513          	addi	a0,a0,-2
   1511c:	0007d683          	lhu	a3,0(a5)
   15120:	ffe78793          	addi	a5,a5,-2
   15124:	00270713          	addi	a4,a4,2
   15128:	fed71f23          	sh	a3,-2(a4)
   1512c:	fef518e3          	bne	a0,a5,1511c <emovi+0x3c>
   15130:	00059c23          	sh	zero,24(a1)
   15134:	00008067          	ret
   15138:	01255603          	lhu	a2,18(a0)
   1513c:	00c6f633          	and	a2,a3,a2
   15140:	00d61e63          	bne	a2,a3,1515c <emovi+0x7c>
   15144:	01250813          	addi	a6,a0,18
   15148:	00050693          	mv	a3,a0
   1514c:	0006d603          	lhu	a2,0(a3)
   15150:	00268693          	addi	a3,a3,2
   15154:	00061e63          	bnez	a2,15170 <emovi+0x90>
   15158:	ff069ae3          	bne	a3,a6,1514c <emovi+0x6c>
   1515c:	01a58593          	addi	a1,a1,26
   15160:	00270713          	addi	a4,a4,2
   15164:	fe071f23          	sh	zero,-2(a4)
   15168:	fee59ce3          	bne	a1,a4,15160 <emovi+0x80>
   1516c:	00008067          	ret
   15170:	00658713          	addi	a4,a1,6
   15174:	00059223          	sh	zero,4(a1)
   15178:	ffc50513          	addi	a0,a0,-4
   1517c:	0007d683          	lhu	a3,0(a5)
   15180:	ffe78793          	addi	a5,a5,-2
   15184:	00270713          	addi	a4,a4,2
   15188:	fed71f23          	sh	a3,-2(a4)
   1518c:	fea798e3          	bne	a5,a0,1517c <emovi+0x9c>
   15190:	00008067          	ret

00015194 <ecmp>:
   15194:	01255783          	lhu	a5,18(a0)
   15198:	fb010113          	addi	sp,sp,-80
   1519c:	04812423          	sw	s0,72(sp)
   151a0:	fff7c793          	not	a5,a5
   151a4:	04112623          	sw	ra,76(sp)
   151a8:	01179713          	slli	a4,a5,0x11
   151ac:	00058413          	mv	s0,a1
   151b0:	00071e63          	bnez	a4,151cc <ecmp+0x38>
   151b4:	01250693          	addi	a3,a0,18
   151b8:	00050793          	mv	a5,a0
   151bc:	0007d703          	lhu	a4,0(a5)
   151c0:	00278793          	addi	a5,a5,2
   151c4:	08071c63          	bnez	a4,1525c <ecmp+0xc8>
   151c8:	fed79ae3          	bne	a5,a3,151bc <ecmp+0x28>
   151cc:	01245783          	lhu	a5,18(s0)
   151d0:	fff7c793          	not	a5,a5
   151d4:	01179713          	slli	a4,a5,0x11
   151d8:	06070063          	beqz	a4,15238 <ecmp+0xa4>
   151dc:	00810593          	addi	a1,sp,8
   151e0:	f01ff0ef          	jal	ra,150e0 <emovi>
   151e4:	02410593          	addi	a1,sp,36
   151e8:	00040513          	mv	a0,s0
   151ec:	ef5ff0ef          	jal	ra,150e0 <emovi>
   151f0:	00815583          	lhu	a1,8(sp)
   151f4:	02415503          	lhu	a0,36(sp)
   151f8:	06b50c63          	beq	a0,a1,15270 <ecmp+0xdc>
   151fc:	00a10793          	addi	a5,sp,10
   15200:	02610713          	addi	a4,sp,38
   15204:	02010613          	addi	a2,sp,32
   15208:	0007d683          	lhu	a3,0(a5)
   1520c:	00278793          	addi	a5,a5,2
   15210:	0a069863          	bnez	a3,152c0 <ecmp+0x12c>
   15214:	00075683          	lhu	a3,0(a4)
   15218:	00270713          	addi	a4,a4,2
   1521c:	0a069263          	bnez	a3,152c0 <ecmp+0x12c>
   15220:	fef614e3          	bne	a2,a5,15208 <ecmp+0x74>
   15224:	00000513          	li	a0,0
   15228:	04c12083          	lw	ra,76(sp)
   1522c:	04812403          	lw	s0,72(sp)
   15230:	05010113          	addi	sp,sp,80
   15234:	00008067          	ret
   15238:	00040793          	mv	a5,s0
   1523c:	0007d703          	lhu	a4,0(a5)
   15240:	01240693          	addi	a3,s0,18
   15244:	00278793          	addi	a5,a5,2
   15248:	00071a63          	bnez	a4,1525c <ecmp+0xc8>
   1524c:	f8d788e3          	beq	a5,a3,151dc <ecmp+0x48>
   15250:	0007d703          	lhu	a4,0(a5)
   15254:	00278793          	addi	a5,a5,2
   15258:	fe070ae3          	beqz	a4,1524c <ecmp+0xb8>
   1525c:	04c12083          	lw	ra,76(sp)
   15260:	04812403          	lw	s0,72(sp)
   15264:	ffe00513          	li	a0,-2
   15268:	05010113          	addi	sp,sp,80
   1526c:	00008067          	ret
   15270:	00a15603          	lhu	a2,10(sp)
   15274:	02615683          	lhu	a3,38(sp)
   15278:	00153513          	seqz	a0,a0
   1527c:	00a10713          	addi	a4,sp,10
   15280:	02610793          	addi	a5,sp,38
   15284:	00151513          	slli	a0,a0,0x1
   15288:	fff50513          	addi	a0,a0,-1
   1528c:	03c10593          	addi	a1,sp,60
   15290:	00278793          	addi	a5,a5,2
   15294:	00270713          	addi	a4,a4,2
   15298:	00d61e63          	bne	a2,a3,152b4 <ecmp+0x120>
   1529c:	f8b784e3          	beq	a5,a1,15224 <ecmp+0x90>
   152a0:	00075603          	lhu	a2,0(a4)
   152a4:	0007d683          	lhu	a3,0(a5)
   152a8:	00270713          	addi	a4,a4,2
   152ac:	00278793          	addi	a5,a5,2
   152b0:	fed606e3          	beq	a2,a3,1529c <ecmp+0x108>
   152b4:	f6c6eae3          	bltu	a3,a2,15228 <ecmp+0x94>
   152b8:	40a00533          	neg	a0,a0
   152bc:	f6dff06f          	j	15228 <ecmp+0x94>
   152c0:	00100513          	li	a0,1
   152c4:	f60582e3          	beqz	a1,15228 <ecmp+0x94>
   152c8:	fff00513          	li	a0,-1
   152cc:	f5dff06f          	j	15228 <ecmp+0x94>

000152d0 <emdnorm>:
   152d0:	fe010113          	addi	sp,sp,-32
   152d4:	00812c23          	sw	s0,24(sp)
   152d8:	00912a23          	sw	s1,20(sp)
   152dc:	01212823          	sw	s2,16(sp)
   152e0:	01312623          	sw	s3,12(sp)
   152e4:	01412423          	sw	s4,8(sp)
   152e8:	01512223          	sw	s5,4(sp)
   152ec:	00068913          	mv	s2,a3
   152f0:	00078493          	mv	s1,a5
   152f4:	00112e23          	sw	ra,28(sp)
   152f8:	00050413          	mv	s0,a0
   152fc:	00058993          	mv	s3,a1
   15300:	00060a13          	mv	s4,a2
   15304:	00070a93          	mv	s5,a4
   15308:	a3dff0ef          	jal	ra,14d44 <enormlz>
   1530c:	09000793          	li	a5,144
   15310:	40a90933          	sub	s2,s2,a0
   15314:	18a7dc63          	bge	a5,a0,154ac <emdnorm+0x1dc>
   15318:	000087b7          	lui	a5,0x8
   1531c:	ffe78793          	addi	a5,a5,-2 # 7ffe <register_fini-0x8076>
   15320:	2127da63          	bge	a5,s2,15534 <emdnorm+0x264>
   15324:	1e0a8463          	beqz	s5,1550c <emdnorm+0x23c>
   15328:	0044a503          	lw	a0,4(s1)
   1532c:	0004a783          	lw	a5,0(s1)
   15330:	06f50a63          	beq	a0,a5,153a4 <emdnorm+0xd4>
   15334:	01a48713          	addi	a4,s1,26
   15338:	03448793          	addi	a5,s1,52
   1533c:	00270713          	addi	a4,a4,2
   15340:	fe071f23          	sh	zero,-2(a4)
   15344:	fef71ce3          	bne	a4,a5,1533c <emdnorm+0x6c>
   15348:	03800793          	li	a5,56
   1534c:	36f50063          	beq	a0,a5,156ac <emdnorm+0x3dc>
   15350:	18a7d063          	bge	a5,a0,154d0 <emdnorm+0x200>
   15354:	04000793          	li	a5,64
   15358:	2ef50e63          	beq	a0,a5,15654 <emdnorm+0x384>
   1535c:	07100793          	li	a5,113
   15360:	32f51063          	bne	a0,a5,15680 <emdnorm+0x3b0>
   15364:	400087b7          	lui	a5,0x40008
   15368:	fff78793          	addi	a5,a5,-1 # 40007fff <__BSS_END__+0x3ffe0517>
   1536c:	00a00713          	li	a4,10
   15370:	00f4aa23          	sw	a5,20(s1)
   15374:	ffff87b7          	lui	a5,0xffff8
   15378:	00e4a423          	sw	a4,8(s1)
   1537c:	00f49c23          	sh	a5,24(s1)
   15380:	00e4a623          	sw	a4,12(s1)
   15384:	00a00793          	li	a5,10
   15388:	00008737          	lui	a4,0x8
   1538c:	00878793          	addi	a5,a5,8 # ffff8008 <__BSS_END__+0xfffd0520>
   15390:	00179793          	slli	a5,a5,0x1
   15394:	00f487b3          	add	a5,s1,a5
   15398:	00e79523          	sh	a4,10(a5)
   1539c:	00a4a023          	sw	a0,0(s1)
   153a0:	1d205863          	blez	s2,15570 <emdnorm+0x2a0>
   153a4:	0084a583          	lw	a1,8(s1)
   153a8:	0144d783          	lhu	a5,20(s1)
   153ac:	08f00813          	li	a6,143
   153b0:	00159613          	slli	a2,a1,0x1
   153b4:	00c40633          	add	a2,s0,a2
   153b8:	00065703          	lhu	a4,0(a2)
   153bc:	00f776b3          	and	a3,a4,a5
   153c0:	02a84a63          	blt	a6,a0,153f4 <emdnorm+0x124>
   153c4:	00b00813          	li	a6,11
   153c8:	02b84663          	blt	a6,a1,153f4 <emdnorm+0x124>
   153cc:	00060793          	mv	a5,a2
   153d0:	01840593          	addi	a1,s0,24
   153d4:	0027d703          	lhu	a4,2(a5)
   153d8:	00070463          	beqz	a4,153e0 <emdnorm+0x110>
   153dc:	0016e693          	ori	a3,a3,1
   153e0:	00079123          	sh	zero,2(a5)
   153e4:	00278793          	addi	a5,a5,2
   153e8:	fef596e3          	bne	a1,a5,153d4 <emdnorm+0x104>
   153ec:	00065703          	lhu	a4,0(a2)
   153f0:	0144d783          	lhu	a5,20(s1)
   153f4:	fff7c793          	not	a5,a5
   153f8:	00e7f7b3          	and	a5,a5,a4
   153fc:	00f61023          	sh	a5,0(a2)
   15400:	0164d783          	lhu	a5,22(s1)
   15404:	00d7f733          	and	a4,a5,a3
   15408:	06070063          	beqz	a4,15468 <emdnorm+0x198>
   1540c:	02d79263          	bne	a5,a3,15430 <emdnorm+0x160>
   15410:	20099863          	bnez	s3,15620 <emdnorm+0x350>
   15414:	00c4a783          	lw	a5,12(s1)
   15418:	0184d703          	lhu	a4,24(s1)
   1541c:	00179793          	slli	a5,a5,0x1
   15420:	00f407b3          	add	a5,s0,a5
   15424:	0007d783          	lhu	a5,0(a5)
   15428:	00e7f7b3          	and	a5,a5,a4
   1542c:	02078e63          	beqz	a5,15468 <emdnorm+0x198>
   15430:	03248613          	addi	a2,s1,50
   15434:	01840693          	addi	a3,s0,24
   15438:	01c48493          	addi	s1,s1,28
   1543c:	00000713          	li	a4,0
   15440:	00065783          	lhu	a5,0(a2)
   15444:	0006d583          	lhu	a1,0(a3)
   15448:	ffe68693          	addi	a3,a3,-2
   1544c:	ffe60613          	addi	a2,a2,-2
   15450:	00b787b3          	add	a5,a5,a1
   15454:	00e787b3          	add	a5,a5,a4
   15458:	0107d713          	srli	a4,a5,0x10
   1545c:	00f69123          	sh	a5,2(a3)
   15460:	00177713          	andi	a4,a4,1
   15464:	fc961ee3          	bne	a2,s1,15440 <emdnorm+0x170>
   15468:	17205663          	blez	s2,155d4 <emdnorm+0x304>
   1546c:	00445783          	lhu	a5,4(s0)
   15470:	12079e63          	bnez	a5,155ac <emdnorm+0x2dc>
   15474:	000087b7          	lui	a5,0x8
   15478:	00041c23          	sh	zero,24(s0)
   1547c:	ffe78793          	addi	a5,a5,-2 # 7ffe <register_fini-0x8076>
   15480:	0927c863          	blt	a5,s2,15510 <emdnorm+0x240>
   15484:	01241123          	sh	s2,2(s0)
   15488:	01c12083          	lw	ra,28(sp)
   1548c:	01812403          	lw	s0,24(sp)
   15490:	01412483          	lw	s1,20(sp)
   15494:	01012903          	lw	s2,16(sp)
   15498:	00c12983          	lw	s3,12(sp)
   1549c:	00812a03          	lw	s4,8(sp)
   154a0:	00412a83          	lw	s5,4(sp)
   154a4:	02010113          	addi	sp,sp,32
   154a8:	00008067          	ret
   154ac:	0e095463          	bgez	s2,15594 <emdnorm+0x2c4>
   154b0:	f7000793          	li	a5,-144
   154b4:	08f95c63          	bge	s2,a5,1554c <emdnorm+0x27c>
   154b8:	00240793          	addi	a5,s0,2
   154bc:	01a40413          	addi	s0,s0,26
   154c0:	00278793          	addi	a5,a5,2
   154c4:	fe079f23          	sh	zero,-2(a5)
   154c8:	fe879ce3          	bne	a5,s0,154c0 <emdnorm+0x1f0>
   154cc:	fbdff06f          	j	15488 <emdnorm+0x1b8>
   154d0:	01800793          	li	a5,24
   154d4:	14f50a63          	beq	a0,a5,15628 <emdnorm+0x358>
   154d8:	03500793          	li	a5,53
   154dc:	1af51263          	bne	a0,a5,15680 <emdnorm+0x3b0>
   154e0:	00001737          	lui	a4,0x1
   154e4:	040007b7          	lui	a5,0x4000
   154e8:	00600693          	li	a3,6
   154ec:	7ff78793          	addi	a5,a5,2047 # 40007ff <__BSS_END__+0x3fd8d17>
   154f0:	80070713          	addi	a4,a4,-2048 # 800 <register_fini-0xf874>
   154f4:	00f4aa23          	sw	a5,20(s1)
   154f8:	00d4a423          	sw	a3,8(s1)
   154fc:	00e49c23          	sh	a4,24(s1)
   15500:	00d4a623          	sw	a3,12(s1)
   15504:	00600793          	li	a5,6
   15508:	e85ff06f          	j	1538c <emdnorm+0xbc>
   1550c:	00041c23          	sh	zero,24(s0)
   15510:	ffff87b7          	lui	a5,0xffff8
   15514:	fff7c793          	not	a5,a5
   15518:	00f41123          	sh	a5,2(s0)
   1551c:	00440793          	addi	a5,s0,4
   15520:	01840413          	addi	s0,s0,24
   15524:	00079023          	sh	zero,0(a5) # ffff8000 <__BSS_END__+0xfffd0518>
   15528:	00278793          	addi	a5,a5,2
   1552c:	fef41ce3          	bne	s0,a5,15524 <emdnorm+0x254>
   15530:	f59ff06f          	j	15488 <emdnorm+0x1b8>
   15534:	00240793          	addi	a5,s0,2
   15538:	01a40413          	addi	s0,s0,26
   1553c:	00278793          	addi	a5,a5,2
   15540:	fe079f23          	sh	zero,-2(a5)
   15544:	fe879ce3          	bne	a5,s0,1553c <emdnorm+0x26c>
   15548:	f41ff06f          	j	15488 <emdnorm+0x1b8>
   1554c:	00090593          	mv	a1,s2
   15550:	00040513          	mv	a0,s0
   15554:	96dff0ef          	jal	ra,14ec0 <eshift.part.0>
   15558:	00050463          	beqz	a0,15560 <emdnorm+0x290>
   1555c:	00100993          	li	s3,1
   15560:	0a0a8a63          	beqz	s5,15614 <emdnorm+0x344>
   15564:	0044a503          	lw	a0,4(s1)
   15568:	0004a783          	lw	a5,0(s1)
   1556c:	dcf514e3          	bne	a0,a5,15334 <emdnorm+0x64>
   15570:	09000793          	li	a5,144
   15574:	08f50263          	beq	a0,a5,155f8 <emdnorm+0x328>
   15578:	01845783          	lhu	a5,24(s0)
   1557c:	00040513          	mv	a0,s0
   15580:	0017f793          	andi	a5,a5,1
   15584:	00f9e9b3          	or	s3,s3,a5
   15588:	d4cff0ef          	jal	ra,14ad4 <eshdn1>
   1558c:	0044a503          	lw	a0,4(s1)
   15590:	e15ff06f          	j	153a4 <emdnorm+0xd4>
   15594:	ee0a80e3          	beqz	s5,15474 <emdnorm+0x1a4>
   15598:	0044a503          	lw	a0,4(s1)
   1559c:	0004a783          	lw	a5,0(s1)
   155a0:	d8f51ae3          	bne	a0,a5,15334 <emdnorm+0x64>
   155a4:	e12040e3          	bgtz	s2,153a4 <emdnorm+0xd4>
   155a8:	fc9ff06f          	j	15570 <emdnorm+0x2a0>
   155ac:	00040513          	mv	a0,s0
   155b0:	d24ff0ef          	jal	ra,14ad4 <eshdn1>
